; ModuleID = 'ImageMeasurements.cpp'
target datalayout = "e-p:64:64:64-i1:8:8-i8:8:8-i16:16:16-i32:32:32-i64:64:64-f32:32:32-f64:64:64-v64:64:64-v128:128:128-a0:0:64-s0:64:64-f80:128:128-n8:16:32:64-S128"
target triple = "x86_64-unknown-linux-gnu"

%"class.std::ios_base::Init" = type { i8 }
%class.ImageMeasurements = type { %"class.std::vector", float, float, float }
%"class.std::vector" = type { %"struct.std::_Vector_base" }
%"struct.std::_Vector_base" = type { %"struct.std::_Vector_base<Point, std::allocator<Point> >::_Vector_impl" }
%"struct.std::_Vector_base<Point, std::allocator<Point> >::_Vector_impl" = type { %class.Point*, %class.Point*, %class.Point* }
%class.Point = type { float, float }
%class.ProjectedCylinder = type { [4 x %class.Point] }
%class.FlexImage = type { %class.FlexImageStore*, i8*, i32, i32, %class.FISize, i32 }
%class.FlexImageStore = type { i32, i8*, %class.FISize, i32 }
%class.FISize = type { i32, i32 }
%class.BinaryImage = type { %class.FlexImageStore*, i8*, i32, i32 }
%"class.std::vector.0" = type { %"struct.std::_Vector_base.1" }
%"struct.std::_Vector_base.1" = type { %"struct.std::_Vector_base<FlexImage<unsigned char, 1>, std::allocator<FlexImage<unsigned char, 1> > >::_Vector_impl" }
%"struct.std::_Vector_base<FlexImage<unsigned char, 1>, std::allocator<FlexImage<unsigned char, 1> > >::_Vector_impl" = type { %class.FlexImage*, %class.FlexImage*, %class.FlexImage* }
%class.MultiCameraProjectedBody = type { %"class.std::vector.5" }
%"class.std::vector.5" = type { %"struct.std::_Vector_base.6" }
%"struct.std::_Vector_base.6" = type { %"struct.std::_Vector_base<ProjectedBody, std::allocator<ProjectedBody> >::_Vector_impl" }
%"struct.std::_Vector_base<ProjectedBody, std::allocator<ProjectedBody> >::_Vector_impl" = type { %class.ProjectedBody*, %class.ProjectedBody*, %class.ProjectedBody* }
%class.ProjectedBody = type { %"class.std::vector.10" }
%"class.std::vector.10" = type { %"struct.std::_Vector_base.11" }
%"struct.std::_Vector_base.11" = type { %"struct.std::_Vector_base<ProjectedCylinder, std::allocator<ProjectedCylinder> >::_Vector_impl" }
%"struct.std::_Vector_base<ProjectedCylinder, std::allocator<ProjectedCylinder> >::_Vector_impl" = type { %class.ProjectedCylinder*, %class.ProjectedCylinder*, %class.ProjectedCylinder* }
%"class.std::vector.15" = type { %"struct.std::_Vector_base.16" }
%"struct.std::_Vector_base.16" = type { %"struct.std::_Vector_base<BinaryImage, std::allocator<BinaryImage> >::_Vector_impl" }
%"struct.std::_Vector_base<BinaryImage, std::allocator<BinaryImage> >::_Vector_impl" = type { %class.BinaryImage*, %class.BinaryImage*, %class.BinaryImage* }

@_ZStL8__ioinit = internal global %"class.std::ios_base::Init" zeroinitializer, align 1
@__dso_handle = external global i8
@llvm.global_ctors = appending global [1 x { i32, void ()* }] [{ i32, void ()* } { i32 65535, void ()* @_GLOBAL__I_a }]

declare void @_ZNSt8ios_base4InitC1Ev(%"class.std::ios_base::Init"*)

declare void @_ZNSt8ios_base4InitD1Ev(%"class.std::ios_base::Init"*)

declare i32 @__cxa_atexit(void (i8*)*, i8*, i8*) nounwind

define void @_ZN17ImageMeasurements9EdgeErrorERK17ProjectedCylinderRK9FlexImageIhLi1EERfRi(%class.ImageMeasurements* nocapture %this, %class.ProjectedCylinder* nocapture %ProjCyl, %class.FlexImage* nocapture %EdgeMap, float* nocapture %error, i32* nocapture %samplePoints) uwtable align 2 {
invoke.cont18:
  tail call void @llvm.dbg.value(metadata !{%class.ImageMeasurements* %this}, i64 0, metadata !6918), !dbg !7253
  tail call void @llvm.dbg.value(metadata !{%class.ProjectedCylinder* %ProjCyl}, i64 0, metadata !6920), !dbg !7253
  tail call void @llvm.dbg.value(metadata !{%class.FlexImage* %EdgeMap}, i64 0, metadata !6921), !dbg !7253
  tail call void @llvm.dbg.value(metadata !{float* %error}, i64 0, metadata !6922), !dbg !7253
  tail call void @llvm.dbg.value(metadata !{i32* %samplePoints}, i64 0, metadata !6923), !dbg !7253
  tail call void @llvm.dbg.value(metadata !1318, i64 0, metadata !6924), !dbg !7254
  tail call void @llvm.dbg.value(metadata !1318, i64 0, metadata !6924), !dbg !7254
  tail call void @llvm.dbg.value(metadata !1318, i64 0, metadata !7255), !dbg !7257
  tail call void @llvm.dbg.value(metadata !1318, i64 0, metadata !7258), !dbg !7260
  tail call void @llvm.dbg.value(metadata !1318, i64 0, metadata !6924), !dbg !7261
  tail call void @llvm.dbg.declare(metadata !7262, metadata !6927), !dbg !7263
  %x = getelementptr inbounds %class.ProjectedCylinder* %ProjCyl, i64 0, i32 0, i64 1, i32 0, !dbg !7264
  %0 = load float* %x, align 4, !dbg !7264, !tbaa !7265
  %x4 = getelementptr inbounds %class.ProjectedCylinder* %ProjCyl, i64 0, i32 0, i64 0, i32 0, !dbg !7264
  %1 = load float* %x4, align 4, !dbg !7264, !tbaa !7265
  %sub = fsub float %0, %1, !dbg !7264
  %y = getelementptr inbounds %class.ProjectedCylinder* %ProjCyl, i64 0, i32 0, i64 1, i32 1, !dbg !7264
  %2 = load float* %y, align 4, !dbg !7264, !tbaa !7265
  %y7 = getelementptr inbounds %class.ProjectedCylinder* %ProjCyl, i64 0, i32 0, i64 0, i32 1, !dbg !7264
  %3 = load float* %y7, align 4, !dbg !7264, !tbaa !7265
  %sub8 = fsub float %2, %3, !dbg !7264
  tail call void @llvm.dbg.value(metadata !7262, i64 0, metadata !7268), !dbg !7269
  tail call void @llvm.dbg.value(metadata !{float %sub}, i64 0, metadata !7270), !dbg !7269
  tail call void @llvm.dbg.value(metadata !{float %sub8}, i64 0, metadata !7271), !dbg !7269
  tail call void @llvm.dbg.value(metadata !7262, i64 0, metadata !7272) nounwind, !dbg !7274
  %mul.i144 = fmul float %sub, %sub, !dbg !7275
  %mul3.i146 = fmul float %sub8, %sub8, !dbg !7275
  %add.i147 = fadd float %mul.i144, %mul3.i146, !dbg !7275
  %conv.i148 = fpext float %add.i147 to double, !dbg !7275
  %call.i149 = tail call double @sqrt(double %conv.i148) nounwind, !dbg !7275
  %mStep = getelementptr inbounds %class.ImageMeasurements* %this, i64 0, i32 1, !dbg !7273
  %4 = load float* %mStep, align 4, !dbg !7273, !tbaa !7265
  %conv = fpext float %4 to double, !dbg !7273
  %div = fdiv double %call.i149, %conv, !dbg !7273
  %add = fadd double %div, 5.000000e-01, !dbg !7273
  %conv10 = fptosi double %add to i32, !dbg !7273
  tail call void @llvm.dbg.value(metadata !{i32 %conv10}, i64 0, metadata !7277), !dbg !7278
  tail call void @llvm.dbg.value(metadata !7279, i64 0, metadata !7280), !dbg !7278
  %cmp.i141 = icmp slt i32 %conv10, 4, !dbg !7281
  %.sroa.speculated154 = select i1 %cmp.i141, i32 4, i32 %conv10, !dbg !7273
  tail call void @llvm.dbg.value(metadata !{i32 %.sroa.speculated154}, i64 0, metadata !6928), !dbg !7273
  %inc = add nsw i32 %.sroa.speculated154, 1, !dbg !7284
  tail call void @llvm.dbg.value(metadata !{i32 %inc}, i64 0, metadata !6928), !dbg !7284
  %conv14 = sitofp i32 %.sroa.speculated154 to float, !dbg !7284
  %div15 = fdiv float 1.000000e+00, %conv14, !dbg !7284
  tail call void @llvm.dbg.value(metadata !{float %div15}, i64 0, metadata !6929), !dbg !7284
  tail call void @llvm.dbg.declare(metadata !7262, metadata !6931), !dbg !7285
  %x21 = getelementptr inbounds %class.ProjectedCylinder* %ProjCyl, i64 0, i32 0, i64 3, i32 0, !dbg !7286
  %5 = load float* %x21, align 4, !dbg !7286, !tbaa !7265
  %x22 = getelementptr inbounds %class.ProjectedCylinder* %ProjCyl, i64 0, i32 0, i64 2, i32 0, !dbg !7286
  %6 = load float* %x22, align 4, !dbg !7286, !tbaa !7265
  %sub23 = fsub float %5, %6, !dbg !7286
  %y26 = getelementptr inbounds %class.ProjectedCylinder* %ProjCyl, i64 0, i32 0, i64 3, i32 1, !dbg !7286
  %7 = load float* %y26, align 4, !dbg !7286, !tbaa !7265
  %y27 = getelementptr inbounds %class.ProjectedCylinder* %ProjCyl, i64 0, i32 0, i64 2, i32 1, !dbg !7286
  %8 = load float* %y27, align 4, !dbg !7286, !tbaa !7265
  %sub28 = fsub float %7, %8, !dbg !7286
  tail call void @llvm.dbg.value(metadata !7262, i64 0, metadata !7287), !dbg !7288
  tail call void @llvm.dbg.value(metadata !{float %sub23}, i64 0, metadata !7289), !dbg !7288
  tail call void @llvm.dbg.value(metadata !{float %sub28}, i64 0, metadata !7290), !dbg !7288
  tail call void @llvm.dbg.value(metadata !7262, i64 0, metadata !7291) nounwind, !dbg !7293
  %mul.i134 = fmul float %sub23, %sub23, !dbg !7294
  %mul3.i = fmul float %sub28, %sub28, !dbg !7294
  %add.i135 = fadd float %mul.i134, %mul3.i, !dbg !7294
  %conv.i136 = fpext float %add.i135 to double, !dbg !7294
  %call.i = tail call double @sqrt(double %conv.i136) nounwind, !dbg !7294
  %9 = load float* %mStep, align 4, !dbg !7292, !tbaa !7265
  %conv34 = fpext float %9 to double, !dbg !7292
  %div35 = fdiv double %call.i, %conv34, !dbg !7292
  %add36 = fadd double %div35, 5.000000e-01, !dbg !7292
  %conv37 = fptosi double %add36 to i32, !dbg !7292
  tail call void @llvm.dbg.value(metadata !{i32 %conv37}, i64 0, metadata !7295), !dbg !7296
  tail call void @llvm.dbg.value(metadata !7279, i64 0, metadata !7297), !dbg !7296
  %cmp.i133 = icmp slt i32 %conv37, 4, !dbg !7298
  %.sroa.speculated = select i1 %cmp.i133, i32 4, i32 %conv37, !dbg !7292
  tail call void @llvm.dbg.value(metadata !{i32 %.sroa.speculated}, i64 0, metadata !6932), !dbg !7292
  %inc42 = add nsw i32 %.sroa.speculated, 1, !dbg !7299
  tail call void @llvm.dbg.value(metadata !{i32 %inc42}, i64 0, metadata !6932), !dbg !7299
  %conv43 = sitofp i32 %.sroa.speculated to float, !dbg !7299
  %div44 = fdiv float 1.000000e+00, %conv43, !dbg !7299
  tail call void @llvm.dbg.value(metadata !{float %div44}, i64 0, metadata !6933), !dbg !7299
  tail call void @llvm.dbg.value(metadata !7300, i64 0, metadata !6934), !dbg !7301
  tail call void @llvm.dbg.value(metadata !1318, i64 0, metadata !6935), !dbg !7302
  %cmp165 = icmp sgt i32 %inc, 0, !dbg !7302
  br i1 %cmp165, label %for.body.lr.ph, label %for.cond58.preheader, !dbg !7302

for.body.lr.ph:                                   ; preds = %invoke.cont18
  %width.i.i110 = getelementptr inbounds %class.FlexImage* %EdgeMap, i64 0, i32 4, i32 0, !dbg !7303
  %height.i.i115 = getelementptr inbounds %class.FlexImage* %EdgeMap, i64 0, i32 4, i32 1, !dbg !7306
  %mData.i.i.i118 = getelementptr inbounds %class.FlexImage* %EdgeMap, i64 0, i32 1, !dbg !7308
  %mStepBytes.i.i.i119 = getelementptr inbounds %class.FlexImage* %EdgeMap, i64 0, i32 3, !dbg !7308
  %mBpp.i.i.i122 = getelementptr inbounds %class.FlexImage* %EdgeMap, i64 0, i32 2, !dbg !7308
  %.pre172 = load float* %x4, align 4, !dbg !7313, !tbaa !7265
  %.pre173 = load float* %y7, align 4, !dbg !7314, !tbaa !7265
  br label %for.body, !dbg !7302

for.cond58.preheader:                             ; preds = %invoke.cont54, %invoke.cont18
  %.lcssa164 = phi i32 [ 0, %invoke.cont18 ], [ %19, %invoke.cont54 ]
  %cmp59161 = icmp sgt i32 %inc42, 0, !dbg !7315
  br i1 %cmp59161, label %for.body60.lr.ph, label %invoke.cont79, !dbg !7315

for.body60.lr.ph:                                 ; preds = %for.cond58.preheader
  %width.i.i = getelementptr inbounds %class.FlexImage* %EdgeMap, i64 0, i32 4, i32 0, !dbg !7316
  %height.i.i = getelementptr inbounds %class.FlexImage* %EdgeMap, i64 0, i32 4, i32 1, !dbg !7318
  %mData.i.i.i = getelementptr inbounds %class.FlexImage* %EdgeMap, i64 0, i32 1, !dbg !7319
  %mStepBytes.i.i.i = getelementptr inbounds %class.FlexImage* %EdgeMap, i64 0, i32 3, !dbg !7319
  %mBpp.i.i.i = getelementptr inbounds %class.FlexImage* %EdgeMap, i64 0, i32 2, !dbg !7319
  %.pre = load float* %x22, align 4, !dbg !7322, !tbaa !7265
  %.pre171 = load float* %y27, align 4, !dbg !7323, !tbaa !7265
  br label %for.body60, !dbg !7315

for.body:                                         ; preds = %for.body.lr.ph, %invoke.cont54
  %i.0167 = phi i32 [ 0, %for.body.lr.ph ], [ %inc56, %invoke.cont54 ]
  %delta.0166 = phi float [ 0.000000e+00, %for.body.lr.ph ], [ %add55, %invoke.cont54 ]
  %10 = phi i32 [ 0, %for.body.lr.ph ], [ %19, %invoke.cont54 ]
  %mul = fmul float %sub, %delta.0166, !dbg !7313
  %add48 = fadd float %mul, %.pre172, !dbg !7313
  tail call void @llvm.dbg.value(metadata !{float %add48}, i64 0, metadata !6937), !dbg !7313
  %mul52 = fmul float %sub8, %delta.0166, !dbg !7314
  %add53 = fadd float %mul52, %.pre173, !dbg !7314
  tail call void @llvm.dbg.value(metadata !{float %add53}, i64 0, metadata !6939), !dbg !7314
  tail call void @llvm.dbg.value(metadata !{float %add48}, i64 0, metadata !7324), !dbg !7257
  tail call void @llvm.dbg.value(metadata !{float %add53}, i64 0, metadata !7325), !dbg !7257
  tail call void @llvm.dbg.value(metadata !{%class.FlexImage* %EdgeMap}, i64 0, metadata !7326), !dbg !7257
  tail call void @llvm.dbg.value(metadata !{i32* %samplePoints}, i64 0, metadata !7327), !dbg !7257
  %add.i105 = fadd float %add48, 5.000000e-01, !dbg !7328
  %conv.i106 = fptosi float %add.i105 to i32, !dbg !7328
  tail call void @llvm.dbg.value(metadata !{i32 %conv.i106}, i64 0, metadata !7329), !dbg !7328
  %add1.i107 = fadd float %add53, 5.000000e-01, !dbg !7328
  %conv2.i108 = fptosi float %add1.i107 to i32, !dbg !7328
  tail call void @llvm.dbg.value(metadata !{i32 %conv2.i108}, i64 0, metadata !7330), !dbg !7328
  %cmp.i109 = icmp sgt i32 %conv.i106, -1, !dbg !7305
  br i1 %cmp.i109, label %land.lhs.true.i114, label %invoke.cont54, !dbg !7305

land.lhs.true.i114:                               ; preds = %for.body
  tail call void @llvm.dbg.value(metadata !{%class.FlexImage* %EdgeMap}, i64 0, metadata !7331), !dbg !7332
  %11 = load i32* %width.i.i110, align 4, !dbg !7303, !tbaa !7333
  %cmp3.i111 = icmp slt i32 %conv.i106, %11, !dbg !7305
  %cmp5.i112 = icmp sgt i32 %conv2.i108, -1, !dbg !7305
  %or.cond.i113 = and i1 %cmp3.i111, %cmp5.i112, !dbg !7305
  br i1 %or.cond.i113, label %land.lhs.true6.i117, label %invoke.cont54, !dbg !7305

land.lhs.true6.i117:                              ; preds = %land.lhs.true.i114
  tail call void @llvm.dbg.value(metadata !{%class.FlexImage* %EdgeMap}, i64 0, metadata !7334), !dbg !7335
  %12 = load i32* %height.i.i115, align 4, !dbg !7306, !tbaa !7333
  %cmp8.i116 = icmp slt i32 %conv2.i108, %12, !dbg !7305
  br i1 %cmp8.i116, label %if.then.i131, label %invoke.cont54, !dbg !7305

if.then.i131:                                     ; preds = %land.lhs.true6.i117
  tail call void @llvm.dbg.value(metadata !{%class.FlexImage* %EdgeMap}, i64 0, metadata !7336), !dbg !7337
  tail call void @llvm.dbg.value(metadata !{i32 %conv.i106}, i64 0, metadata !7338), !dbg !7337
  tail call void @llvm.dbg.value(metadata !{i32 %conv2.i108}, i64 0, metadata !7339), !dbg !7337
  tail call void @llvm.dbg.value(metadata !{%class.FlexImage* %EdgeMap}, i64 0, metadata !7340), !dbg !7341
  tail call void @llvm.dbg.value(metadata !{i32 %conv.i106}, i64 0, metadata !7342), !dbg !7341
  tail call void @llvm.dbg.value(metadata !{i32 %conv2.i108}, i64 0, metadata !7343), !dbg !7341
  tail call void @llvm.dbg.value(metadata !1318, i64 0, metadata !7344), !dbg !7341
  %13 = load i8** %mData.i.i.i118, align 8, !dbg !7308, !tbaa !7345
  %14 = load i32* %mStepBytes.i.i.i119, align 4, !dbg !7308, !tbaa !7333
  %mul.i.i.i120 = mul nsw i32 %14, %conv2.i108, !dbg !7308
  %idx.ext.i.i.i121 = sext i32 %mul.i.i.i120 to i64, !dbg !7308
  %15 = load i32* %mBpp.i.i.i122, align 4, !dbg !7308, !tbaa !7333
  %mul2.i.i.i123 = mul nsw i32 %15, %conv.i106, !dbg !7308
  %idx.ext3.i.i.i124 = sext i32 %mul2.i.i.i123 to i64, !dbg !7308
  %add.ptr4.sum.i.i.i125 = add i64 %idx.ext3.i.i.i124, %idx.ext.i.i.i121, !dbg !7308
  %add.ptr6.i.i.i126 = getelementptr inbounds i8* %13, i64 %add.ptr4.sum.i.i.i125, !dbg !7308
  %16 = load i8* %add.ptr6.i.i.i126, align 1, !dbg !7312, !tbaa !7266
  %conv10.i127 = zext i8 %16 to i32, !dbg !7312
  %17 = xor i32 %conv10.i127, 255, !dbg !7312
  tail call void @llvm.dbg.value(metadata !{i32 %17}, i64 0, metadata !7346), !dbg !7312
  %mul.i128 = mul nsw i32 %17, %17, !dbg !7347
  %add11.i129 = add nsw i32 %mul.i128, %10, !dbg !7347
  tail call void @llvm.dbg.value(metadata !{i32 %add11.i129}, i64 0, metadata !6924), !dbg !7347
  tail call void @llvm.dbg.value(metadata !{i32 %add11.i129}, i64 0, metadata !7255), !dbg !7257
  tail call void @llvm.dbg.value(metadata !{i32 %add11.i129}, i64 0, metadata !7258), !dbg !7260
  tail call void @llvm.dbg.value(metadata !{i32 %add11.i129}, i64 0, metadata !6924), !dbg !7261
  %18 = load i32* %samplePoints, align 4, !dbg !7348, !tbaa !7333
  %inc.i130 = add nsw i32 %18, 1, !dbg !7348
  store i32 %inc.i130, i32* %samplePoints, align 4, !dbg !7348, !tbaa !7333
  br label %invoke.cont54, !dbg !7349

invoke.cont54:                                    ; preds = %if.then.i131, %land.lhs.true6.i117, %land.lhs.true.i114, %for.body
  %19 = phi i32 [ %10, %for.body ], [ %10, %land.lhs.true.i114 ], [ %10, %land.lhs.true6.i117 ], [ %add11.i129, %if.then.i131 ]
  %add55 = fadd float %div15, %delta.0166, !dbg !7350
  tail call void @llvm.dbg.value(metadata !{float %add55}, i64 0, metadata !6934), !dbg !7350
  %inc56 = add nsw i32 %i.0167, 1, !dbg !7302
  tail call void @llvm.dbg.value(metadata !{i32 %inc56}, i64 0, metadata !6935), !dbg !7302
  %cmp = icmp slt i32 %inc56, %inc, !dbg !7302
  br i1 %cmp, label %for.body, label %for.cond58.preheader, !dbg !7302

for.body60:                                       ; preds = %for.body60.lr.ph, %invoke.cont71
  %i57.0163 = phi i32 [ 0, %for.body60.lr.ph ], [ %inc74, %invoke.cont71 ]
  %delta.1162 = phi float [ 0.000000e+00, %for.body60.lr.ph ], [ %add72, %invoke.cont71 ]
  %20 = phi i32 [ %.lcssa164, %for.body60.lr.ph ], [ %29, %invoke.cont71 ]
  %mul64 = fmul float %sub23, %delta.1162, !dbg !7322
  %add65 = fadd float %mul64, %.pre, !dbg !7322
  tail call void @llvm.dbg.value(metadata !{float %add65}, i64 0, metadata !6942), !dbg !7322
  %mul69 = fmul float %sub28, %delta.1162, !dbg !7323
  %add70 = fadd float %mul69, %.pre171, !dbg !7323
  tail call void @llvm.dbg.value(metadata !{float %add70}, i64 0, metadata !6944), !dbg !7323
  tail call void @llvm.dbg.value(metadata !{float %add65}, i64 0, metadata !7351), !dbg !7260
  tail call void @llvm.dbg.value(metadata !{float %add70}, i64 0, metadata !7352), !dbg !7260
  tail call void @llvm.dbg.value(metadata !{%class.FlexImage* %EdgeMap}, i64 0, metadata !7353), !dbg !7260
  tail call void @llvm.dbg.value(metadata !{i32* %samplePoints}, i64 0, metadata !7354), !dbg !7260
  %add.i = fadd float %add65, 5.000000e-01, !dbg !7355
  %conv.i = fptosi float %add.i to i32, !dbg !7355
  tail call void @llvm.dbg.value(metadata !{i32 %conv.i}, i64 0, metadata !7356), !dbg !7355
  %add1.i = fadd float %add70, 5.000000e-01, !dbg !7355
  %conv2.i = fptosi float %add1.i to i32, !dbg !7355
  tail call void @llvm.dbg.value(metadata !{i32 %conv2.i}, i64 0, metadata !7357), !dbg !7355
  %cmp.i = icmp sgt i32 %conv.i, -1, !dbg !7317
  br i1 %cmp.i, label %land.lhs.true.i, label %invoke.cont71, !dbg !7317

land.lhs.true.i:                                  ; preds = %for.body60
  tail call void @llvm.dbg.value(metadata !{%class.FlexImage* %EdgeMap}, i64 0, metadata !7358), !dbg !7359
  %21 = load i32* %width.i.i, align 4, !dbg !7316, !tbaa !7333
  %cmp3.i = icmp slt i32 %conv.i, %21, !dbg !7317
  %cmp5.i = icmp sgt i32 %conv2.i, -1, !dbg !7317
  %or.cond.i = and i1 %cmp3.i, %cmp5.i, !dbg !7317
  br i1 %or.cond.i, label %land.lhs.true6.i, label %invoke.cont71, !dbg !7317

land.lhs.true6.i:                                 ; preds = %land.lhs.true.i
  tail call void @llvm.dbg.value(metadata !{%class.FlexImage* %EdgeMap}, i64 0, metadata !7360), !dbg !7361
  %22 = load i32* %height.i.i, align 4, !dbg !7318, !tbaa !7333
  %cmp8.i = icmp slt i32 %conv2.i, %22, !dbg !7317
  br i1 %cmp8.i, label %if.then.i, label %invoke.cont71, !dbg !7317

if.then.i:                                        ; preds = %land.lhs.true6.i
  tail call void @llvm.dbg.value(metadata !{%class.FlexImage* %EdgeMap}, i64 0, metadata !7362), !dbg !7363
  tail call void @llvm.dbg.value(metadata !{i32 %conv.i}, i64 0, metadata !7364), !dbg !7363
  tail call void @llvm.dbg.value(metadata !{i32 %conv2.i}, i64 0, metadata !7365), !dbg !7363
  tail call void @llvm.dbg.value(metadata !{%class.FlexImage* %EdgeMap}, i64 0, metadata !7366), !dbg !7367
  tail call void @llvm.dbg.value(metadata !{i32 %conv.i}, i64 0, metadata !7368), !dbg !7367
  tail call void @llvm.dbg.value(metadata !{i32 %conv2.i}, i64 0, metadata !7369), !dbg !7367
  tail call void @llvm.dbg.value(metadata !1318, i64 0, metadata !7370), !dbg !7367
  %23 = load i8** %mData.i.i.i, align 8, !dbg !7319, !tbaa !7345
  %24 = load i32* %mStepBytes.i.i.i, align 4, !dbg !7319, !tbaa !7333
  %mul.i.i.i = mul nsw i32 %24, %conv2.i, !dbg !7319
  %idx.ext.i.i.i = sext i32 %mul.i.i.i to i64, !dbg !7319
  %25 = load i32* %mBpp.i.i.i, align 4, !dbg !7319, !tbaa !7333
  %mul2.i.i.i = mul nsw i32 %25, %conv.i, !dbg !7319
  %idx.ext3.i.i.i = sext i32 %mul2.i.i.i to i64, !dbg !7319
  %add.ptr4.sum.i.i.i = add i64 %idx.ext3.i.i.i, %idx.ext.i.i.i, !dbg !7319
  %add.ptr6.i.i.i = getelementptr inbounds i8* %23, i64 %add.ptr4.sum.i.i.i, !dbg !7319
  %26 = load i8* %add.ptr6.i.i.i, align 1, !dbg !7321, !tbaa !7266
  %conv10.i = zext i8 %26 to i32, !dbg !7321
  %27 = xor i32 %conv10.i, 255, !dbg !7321
  tail call void @llvm.dbg.value(metadata !{i32 %27}, i64 0, metadata !7371), !dbg !7321
  %mul.i = mul nsw i32 %27, %27, !dbg !7372
  %add11.i = add nsw i32 %mul.i, %20, !dbg !7372
  tail call void @llvm.dbg.value(metadata !{i32 %add11.i}, i64 0, metadata !6924), !dbg !7372
  tail call void @llvm.dbg.value(metadata !{i32 %add11.i}, i64 0, metadata !7255), !dbg !7257
  tail call void @llvm.dbg.value(metadata !{i32 %add11.i}, i64 0, metadata !7258), !dbg !7260
  tail call void @llvm.dbg.value(metadata !{i32 %add11.i}, i64 0, metadata !6924), !dbg !7261
  %28 = load i32* %samplePoints, align 4, !dbg !7373, !tbaa !7333
  %inc.i = add nsw i32 %28, 1, !dbg !7373
  store i32 %inc.i, i32* %samplePoints, align 4, !dbg !7373, !tbaa !7333
  br label %invoke.cont71, !dbg !7374

invoke.cont71:                                    ; preds = %if.then.i, %land.lhs.true6.i, %land.lhs.true.i, %for.body60
  %29 = phi i32 [ %20, %for.body60 ], [ %20, %land.lhs.true.i ], [ %20, %land.lhs.true6.i ], [ %add11.i, %if.then.i ]
  %add72 = fadd float %div44, %delta.1162, !dbg !7375
  tail call void @llvm.dbg.value(metadata !{float %add72}, i64 0, metadata !6934), !dbg !7375
  %inc74 = add nsw i32 %i57.0163, 1, !dbg !7315
  tail call void @llvm.dbg.value(metadata !{i32 %inc74}, i64 0, metadata !6940), !dbg !7315
  %cmp59 = icmp slt i32 %inc74, %inc42, !dbg !7315
  br i1 %cmp59, label %for.body60, label %invoke.cont79, !dbg !7315

invoke.cont79:                                    ; preds = %invoke.cont71, %for.cond58.preheader
  %.lcssa = phi i32 [ %.lcssa164, %for.cond58.preheader ], [ %29, %invoke.cont71 ]
  %conv76 = sitofp i32 %.lcssa to float, !dbg !7261
  %div77 = fdiv float %conv76, 6.502500e+04, !dbg !7261
  %30 = load float* %error, align 4, !dbg !7261, !tbaa !7265
  %add78 = fadd float %div77, %30, !dbg !7261
  store float %add78, float* %error, align 4, !dbg !7261, !tbaa !7265
  ret void, !dbg !7376
}

declare void @llvm.dbg.declare(metadata, metadata) nounwind readnone

define void @_ZN17ImageMeasurements11InsideErrorERK17ProjectedCylinderRK11BinaryImageRiS6_(%class.ImageMeasurements* nocapture %this, %class.ProjectedCylinder* nocapture %ProjCyl, %class.BinaryImage* nocapture %FGmap, i32* nocapture %error, i32* nocapture %samplePoints) uwtable align 2 {
invoke.cont63:
  tail call void @llvm.dbg.value(metadata !{%class.ImageMeasurements* %this}, i64 0, metadata !6948), !dbg !7377
  tail call void @llvm.dbg.value(metadata !{%class.ProjectedCylinder* %ProjCyl}, i64 0, metadata !6949), !dbg !7377
  tail call void @llvm.dbg.value(metadata !{%class.BinaryImage* %FGmap}, i64 0, metadata !6950), !dbg !7377
  tail call void @llvm.dbg.value(metadata !{i32* %error}, i64 0, metadata !6951), !dbg !7377
  tail call void @llvm.dbg.value(metadata !{i32* %samplePoints}, i64 0, metadata !6952), !dbg !7377
  tail call void @llvm.dbg.declare(metadata !7262, metadata !6956), !dbg !7378
  tail call void @llvm.dbg.declare(metadata !7262, metadata !6957), !dbg !7378
  %x = getelementptr inbounds %class.ProjectedCylinder* %ProjCyl, i64 0, i32 0, i64 1, i32 0, !dbg !7379
  %0 = load float* %x, align 4, !dbg !7379, !tbaa !7265
  %x6 = getelementptr inbounds %class.ProjectedCylinder* %ProjCyl, i64 0, i32 0, i64 0, i32 0, !dbg !7379
  %1 = load float* %x6, align 4, !dbg !7379, !tbaa !7265
  %sub = fsub float %0, %1, !dbg !7379
  %y = getelementptr inbounds %class.ProjectedCylinder* %ProjCyl, i64 0, i32 0, i64 1, i32 1, !dbg !7379
  %2 = load float* %y, align 4, !dbg !7379, !tbaa !7265
  %y9 = getelementptr inbounds %class.ProjectedCylinder* %ProjCyl, i64 0, i32 0, i64 0, i32 1, !dbg !7379
  %3 = load float* %y9, align 4, !dbg !7379, !tbaa !7265
  %sub10 = fsub float %2, %3, !dbg !7379
  tail call void @llvm.dbg.value(metadata !7262, i64 0, metadata !7380), !dbg !7381
  tail call void @llvm.dbg.value(metadata !{float %sub}, i64 0, metadata !7382), !dbg !7381
  tail call void @llvm.dbg.value(metadata !{float %sub10}, i64 0, metadata !7383), !dbg !7381
  %x15 = getelementptr inbounds %class.ProjectedCylinder* %ProjCyl, i64 0, i32 0, i64 2, i32 0, !dbg !7384
  %4 = load float* %x15, align 4, !dbg !7384, !tbaa !7265
  %x16 = getelementptr inbounds %class.ProjectedCylinder* %ProjCyl, i64 0, i32 0, i64 3, i32 0, !dbg !7384
  %5 = load float* %x16, align 4, !dbg !7384, !tbaa !7265
  %sub17 = fsub float %4, %5, !dbg !7384
  %y20 = getelementptr inbounds %class.ProjectedCylinder* %ProjCyl, i64 0, i32 0, i64 2, i32 1, !dbg !7384
  %6 = load float* %y20, align 4, !dbg !7384, !tbaa !7265
  %y21 = getelementptr inbounds %class.ProjectedCylinder* %ProjCyl, i64 0, i32 0, i64 3, i32 1, !dbg !7384
  %7 = load float* %y21, align 4, !dbg !7384, !tbaa !7265
  %sub22 = fsub float %6, %7, !dbg !7384
  tail call void @llvm.dbg.value(metadata !7262, i64 0, metadata !7385), !dbg !7386
  tail call void @llvm.dbg.value(metadata !{float %sub17}, i64 0, metadata !7387), !dbg !7386
  tail call void @llvm.dbg.value(metadata !{float %sub22}, i64 0, metadata !7388), !dbg !7386
  tail call void @llvm.dbg.declare(metadata !7262, metadata !6958), !dbg !7389
  %div = fmul float %sub, 5.000000e-01, !dbg !7389
  %add = fadd float %1, %div, !dbg !7389
  %div28 = fmul float %sub17, 5.000000e-01, !dbg !7389
  %add29 = fadd float %5, %div28, !dbg !7389
  %sub30 = fsub float %add, %add29, !dbg !7389
  %div33 = fmul float %sub10, 5.000000e-01, !dbg !7389
  %add34 = fadd float %3, %div33, !dbg !7389
  %div37 = fmul float %sub22, 5.000000e-01, !dbg !7389
  %add38 = fadd float %7, %div37, !dbg !7389
  %sub39 = fsub float %add34, %add38, !dbg !7389
  tail call void @llvm.dbg.value(metadata !7262, i64 0, metadata !7390), !dbg !7391
  tail call void @llvm.dbg.value(metadata !{float %sub30}, i64 0, metadata !7392), !dbg !7391
  tail call void @llvm.dbg.value(metadata !{float %sub39}, i64 0, metadata !7393), !dbg !7391
  tail call void @llvm.dbg.value(metadata !7262, i64 0, metadata !7394), !dbg !7395
  tail call void @llvm.dbg.value(metadata !{float %sub30}, i64 0, metadata !7396), !dbg !7395
  tail call void @llvm.dbg.value(metadata !{float %sub39}, i64 0, metadata !7397), !dbg !7395
  tail call void @llvm.dbg.value(metadata !7262, i64 0, metadata !7398) nounwind, !dbg !7400
  %mul.i159 = fmul float %sub, %sub, !dbg !7401
  %mul3.i161 = fmul float %sub10, %sub10, !dbg !7401
  %add.i162 = fadd float %mul.i159, %mul3.i161, !dbg !7401
  %conv.i163 = fpext float %add.i162 to double, !dbg !7401
  %call.i164 = tail call double @sqrt(double %conv.i163) nounwind, !dbg !7401
  %mVstep = getelementptr inbounds %class.ImageMeasurements* %this, i64 0, i32 3, !dbg !7399
  %8 = load float* %mVstep, align 4, !dbg !7399, !tbaa !7265
  %conv = fpext float %8 to double, !dbg !7399
  %div43 = fdiv double %call.i164, %conv, !dbg !7399
  %add44 = fadd double %div43, 5.000000e-01, !dbg !7399
  %conv45 = fptosi double %add44 to i32, !dbg !7399
  tail call void @llvm.dbg.value(metadata !{i32 %conv45}, i64 0, metadata !7402), !dbg !7403
  tail call void @llvm.dbg.value(metadata !7279, i64 0, metadata !7404), !dbg !7403
  %cmp.i156 = icmp slt i32 %conv45, 4, !dbg !7405
  %.sroa.speculated173 = select i1 %cmp.i156, i32 4, i32 %conv45, !dbg !7399
  tail call void @llvm.dbg.value(metadata !{i32 %.sroa.speculated173}, i64 0, metadata !6959), !dbg !7399
  tail call void @llvm.dbg.value(metadata !7262, i64 0, metadata !7406) nounwind, !dbg !7408
  %mul.i = fmul float %sub30, %sub30, !dbg !7409
  %mul3.i = fmul float %sub39, %sub39, !dbg !7409
  %add.i154 = fadd float %mul.i, %mul3.i, !dbg !7409
  %conv.i155 = fpext float %add.i154 to double, !dbg !7409
  %call.i = tail call double @sqrt(double %conv.i155) nounwind, !dbg !7409
  %mHstep = getelementptr inbounds %class.ImageMeasurements* %this, i64 0, i32 2, !dbg !7407
  %9 = load float* %mHstep, align 4, !dbg !7407, !tbaa !7265
  %conv51 = fpext float %9 to double, !dbg !7407
  %div52 = fdiv double %call.i, %conv51, !dbg !7407
  %add53 = fadd double %div52, 5.000000e-01, !dbg !7407
  %conv54 = fptosi double %add53 to i32, !dbg !7407
  tail call void @llvm.dbg.value(metadata !{i32 %conv54}, i64 0, metadata !7410), !dbg !7411
  tail call void @llvm.dbg.value(metadata !7279, i64 0, metadata !7412), !dbg !7411
  %cmp.i151 = icmp slt i32 %conv54, 4, !dbg !7413
  %.sroa.speculated = select i1 %cmp.i151, i32 4, i32 %conv54, !dbg !7407
  tail call void @llvm.dbg.value(metadata !{i32 %.sroa.speculated}, i64 0, metadata !6960), !dbg !7407
  %inc = add nsw i32 %.sroa.speculated173, 1, !dbg !7414
  tail call void @llvm.dbg.value(metadata !{i32 %inc}, i64 0, metadata !6959), !dbg !7414
  %conv59 = sitofp i32 %.sroa.speculated173 to float, !dbg !7414
  %div60 = fdiv float 1.000000e+00, %conv59, !dbg !7414
  tail call void @llvm.dbg.value(metadata !{float %div60}, i64 0, metadata !6961), !dbg !7414
  %conv61 = sitofp i32 %.sroa.speculated to float, !dbg !7415
  %div62 = fdiv float 1.000000e+00, %conv61, !dbg !7415
  tail call void @llvm.dbg.value(metadata !{float %div62}, i64 0, metadata !6962), !dbg !7415
  tail call void @llvm.dbg.value(metadata !7300, i64 0, metadata !6963), !dbg !7416
  tail call void @llvm.dbg.declare(metadata !7262, metadata !6964), !dbg !7417
  tail call void @llvm.dbg.declare(metadata !7262, metadata !6965), !dbg !7417
  %cmp187 = icmp sgt i32 %inc, 0, !dbg !7418
  br i1 %cmp187, label %for.body.lr.ph, label %invoke.cont116, !dbg !7418

for.body.lr.ph:                                   ; preds = %invoke.cont63
  %cmp93184 = icmp sgt i32 %.sroa.speculated, 0, !dbg !7419
  %mWidth.i.i = getelementptr inbounds %class.BinaryImage* %FGmap, i64 0, i32 2, !dbg !7420
  %mHeight.i.i = getelementptr inbounds %class.BinaryImage* %FGmap, i64 0, i32 3, !dbg !7425
  %mData.i.i = getelementptr inbounds %class.BinaryImage* %FGmap, i64 0, i32 1, !dbg !7427
  %.pre = load float* %x6, align 4, !dbg !7429, !tbaa !7265
  %.pre190 = load float* %y9, align 4, !dbg !7429, !tbaa !7265
  %.pre191 = load float* %x16, align 4, !dbg !7430, !tbaa !7265
  %.pre192 = load float* %y21, align 4, !dbg !7430, !tbaa !7265
  br label %for.body, !dbg !7418

for.body:                                         ; preds = %for.body.lr.ph, %for.inc106
  %i.0189 = phi i32 [ 0, %for.body.lr.ph ], [ %inc107, %for.inc106 ]
  %delta1.0188 = phi float [ 0.000000e+00, %for.body.lr.ph ], [ %add91, %for.inc106 ]
  %mul = fmul float %sub, %delta1.0188, !dbg !7429
  %add68 = fadd float %mul, %.pre, !dbg !7429
  %mul71 = fmul float %sub10, %delta1.0188, !dbg !7429
  %add72 = fadd float %mul71, %.pre190, !dbg !7429
  tail call void @llvm.dbg.value(metadata !7262, i64 0, metadata !7431), !dbg !7432
  tail call void @llvm.dbg.value(metadata !{float %add68}, i64 0, metadata !7433), !dbg !7432
  tail call void @llvm.dbg.value(metadata !{float %add72}, i64 0, metadata !7434), !dbg !7432
  %mul77 = fmul float %sub17, %delta1.0188, !dbg !7430
  %add78 = fadd float %mul77, %.pre191, !dbg !7430
  %mul81 = fmul float %sub22, %delta1.0188, !dbg !7430
  %add82 = fadd float %mul81, %.pre192, !dbg !7430
  tail call void @llvm.dbg.value(metadata !7262, i64 0, metadata !7435), !dbg !7436
  tail call void @llvm.dbg.value(metadata !{float %add78}, i64 0, metadata !7437), !dbg !7436
  tail call void @llvm.dbg.value(metadata !{float %add82}, i64 0, metadata !7438), !dbg !7436
  %sub86 = fsub float %add78, %add68, !dbg !7439
  %sub89 = fsub float %add82, %add72, !dbg !7439
  tail call void @llvm.dbg.value(metadata !7262, i64 0, metadata !7440), !dbg !7441
  tail call void @llvm.dbg.value(metadata !{float %sub86}, i64 0, metadata !7442), !dbg !7441
  tail call void @llvm.dbg.value(metadata !{float %sub89}, i64 0, metadata !7443), !dbg !7441
  %add91 = fadd float %div60, %delta1.0188, !dbg !7444
  tail call void @llvm.dbg.value(metadata !{float %add91}, i64 0, metadata !6963), !dbg !7444
  tail call void @llvm.dbg.value(metadata !7300, i64 0, metadata !6968), !dbg !7445
  tail call void @llvm.dbg.value(metadata !1318, i64 0, metadata !6970), !dbg !7419
  br i1 %cmp93184, label %for.body94, label %for.inc106, !dbg !7419

for.body94:                                       ; preds = %for.body, %invoke.cont103
  %j.0186 = phi i32 [ %inc105, %invoke.cont103 ], [ 0, %for.body ]
  %delta2.0185 = phi float [ %add104, %invoke.cont103 ], [ 0.000000e+00, %for.body ]
  %mul97 = fmul float %sub86, %delta2.0185, !dbg !7423
  %add98 = fadd float %add68, %mul97, !dbg !7423
  %mul101 = fmul float %sub89, %delta2.0185, !dbg !7423
  %add102 = fadd float %add72, %mul101, !dbg !7423
  tail call void @llvm.dbg.value(metadata !{float %add98}, i64 0, metadata !7446), !dbg !7447
  tail call void @llvm.dbg.value(metadata !{float %add102}, i64 0, metadata !7448), !dbg !7447
  tail call void @llvm.dbg.value(metadata !{%class.BinaryImage* %FGmap}, i64 0, metadata !7449), !dbg !7447
  tail call void @llvm.dbg.value(metadata !{i32* %error}, i64 0, metadata !7450), !dbg !7447
  tail call void @llvm.dbg.value(metadata !{i32* %samplePoints}, i64 0, metadata !7451), !dbg !7447
  %add.i = fadd float %add98, 5.000000e-01, !dbg !7452
  %conv.i = fptosi float %add.i to i32, !dbg !7452
  tail call void @llvm.dbg.value(metadata !{i32 %conv.i}, i64 0, metadata !7453), !dbg !7452
  %add1.i = fadd float %add102, 5.000000e-01, !dbg !7452
  %conv2.i = fptosi float %add1.i to i32, !dbg !7452
  tail call void @llvm.dbg.value(metadata !{i32 %conv2.i}, i64 0, metadata !7454), !dbg !7452
  %cmp.i = icmp sgt i32 %conv.i, -1, !dbg !7422
  br i1 %cmp.i, label %land.lhs.true.i, label %invoke.cont103, !dbg !7422

land.lhs.true.i:                                  ; preds = %for.body94
  tail call void @llvm.dbg.value(metadata !{%class.BinaryImage* %FGmap}, i64 0, metadata !7455), !dbg !7456
  %10 = load i32* %mWidth.i.i, align 4, !dbg !7420, !tbaa !7333
  %cmp3.i = icmp slt i32 %conv.i, %10, !dbg !7422
  %cmp5.i = icmp sgt i32 %conv2.i, -1, !dbg !7422
  %or.cond.i = and i1 %cmp3.i, %cmp5.i, !dbg !7422
  br i1 %or.cond.i, label %land.lhs.true6.i, label %invoke.cont103, !dbg !7422

land.lhs.true6.i:                                 ; preds = %land.lhs.true.i
  tail call void @llvm.dbg.value(metadata !{%class.BinaryImage* %FGmap}, i64 0, metadata !7457), !dbg !7458
  %11 = load i32* %mHeight.i.i, align 4, !dbg !7425, !tbaa !7333
  %cmp8.i = icmp slt i32 %conv2.i, %11, !dbg !7422
  br i1 %cmp8.i, label %if.then.i, label %invoke.cont103, !dbg !7422

if.then.i:                                        ; preds = %land.lhs.true6.i
  tail call void @llvm.dbg.value(metadata !{%class.BinaryImage* %FGmap}, i64 0, metadata !7459), !dbg !7460
  tail call void @llvm.dbg.value(metadata !{i32 %conv.i}, i64 0, metadata !7461), !dbg !7460
  tail call void @llvm.dbg.value(metadata !{i32 %conv2.i}, i64 0, metadata !7462), !dbg !7460
  %mul.i.i = mul nsw i32 %10, %conv2.i, !dbg !7463
  %add.i.i = add nsw i32 %mul.i.i, %conv.i, !dbg !7463
  tail call void @llvm.dbg.value(metadata !{i32 %add.i.i}, i64 0, metadata !7464), !dbg !7463
  %div.i.i = sdiv i32 %add.i.i, 8, !dbg !7465
  tail call void @llvm.dbg.value(metadata !{i32 %div.i.i}, i64 0, metadata !7466), !dbg !7465
  %idxprom.i.i = sext i32 %div.i.i to i64, !dbg !7427
  %12 = load i8** %mData.i.i, align 8, !dbg !7427, !tbaa !7345
  %arrayidx.i.i = getelementptr inbounds i8* %12, i64 %idxprom.i.i, !dbg !7427
  %13 = load i8* %arrayidx.i.i, align 1, !dbg !7427, !tbaa !7266
  %conv.i.i = zext i8 %13 to i32, !dbg !7427
  %rem3.i.i = and i32 %add.i.i, 7, !dbg !7427
  %shr.i.i = lshr i32 %conv.i.i, %rem3.i.i, !dbg !7427
  %and.i.i = and i32 %shr.i.i, 1, !dbg !7427
  %14 = xor i32 %and.i.i, 1, !dbg !7428
  tail call void @llvm.dbg.value(metadata !{i32 %14}, i64 0, metadata !7467), !dbg !7428
  %15 = load i32* %error, align 4, !dbg !7468, !tbaa !7333
  %add10.i = add nsw i32 %14, %15, !dbg !7468
  store i32 %add10.i, i32* %error, align 4, !dbg !7468, !tbaa !7333
  %16 = load i32* %samplePoints, align 4, !dbg !7469, !tbaa !7333
  %inc.i = add nsw i32 %16, 1, !dbg !7469
  store i32 %inc.i, i32* %samplePoints, align 4, !dbg !7469, !tbaa !7333
  br label %invoke.cont103, !dbg !7470

invoke.cont103:                                   ; preds = %if.then.i, %land.lhs.true6.i, %land.lhs.true.i, %for.body94
  %add104 = fadd float %div62, %delta2.0185, !dbg !7471
  tail call void @llvm.dbg.value(metadata !{float %add104}, i64 0, metadata !6968), !dbg !7471
  %inc105 = add nsw i32 %j.0186, 1, !dbg !7419
  tail call void @llvm.dbg.value(metadata !{i32 %inc105}, i64 0, metadata !6970), !dbg !7419
  %cmp93 = icmp slt i32 %inc105, %.sroa.speculated, !dbg !7419
  br i1 %cmp93, label %for.body94, label %for.inc106, !dbg !7419

for.inc106:                                       ; preds = %invoke.cont103, %for.body
  %inc107 = add nsw i32 %i.0189, 1, !dbg !7418
  tail call void @llvm.dbg.value(metadata !{i32 %inc107}, i64 0, metadata !6966), !dbg !7418
  %cmp = icmp slt i32 %inc107, %inc, !dbg !7418
  br i1 %cmp, label %for.body, label %invoke.cont116, !dbg !7418

invoke.cont116:                                   ; preds = %for.inc106, %invoke.cont63
  ret void, !dbg !7472
}

define float @_ZN17ImageMeasurements14ImageErrorEdgeERSt6vectorI9FlexImageIhLi1EESaIS2_EER24MultiCameraProjectedBody(%class.ImageMeasurements* nocapture %this, %"class.std::vector.0"* nocapture %ImageMaps, %class.MultiCameraProjectedBody* nocapture %ProjBodies) uwtable align 2 {
entry:
  %samples = alloca i32, align 4
  %error = alloca float, align 4
  call void @llvm.dbg.value(metadata !{%class.ImageMeasurements* %this}, i64 0, metadata !6975), !dbg !7473
  call void @llvm.dbg.value(metadata !{%"class.std::vector.0"* %ImageMaps}, i64 0, metadata !6976), !dbg !7473
  call void @llvm.dbg.value(metadata !{%class.MultiCameraProjectedBody* %ProjBodies}, i64 0, metadata !6977), !dbg !7473
  call void @llvm.dbg.declare(metadata !{i32* %samples}, metadata !6978), !dbg !7474
  call void @llvm.dbg.value(metadata !1318, i64 0, metadata !6978), !dbg !7474
  call void @llvm.dbg.value(metadata !1318, i64 0, metadata !6978), !dbg !7474
  call void @llvm.dbg.value(metadata !1318, i64 0, metadata !6978), !dbg !7474
  call void @llvm.dbg.value(metadata !1318, i64 0, metadata !6978), !dbg !7474
  call void @llvm.dbg.value(metadata !1318, i64 0, metadata !6978), !dbg !7474
  store i32 0, i32* %samples, align 4, !dbg !7474, !tbaa !7333
  call void @llvm.dbg.declare(metadata !{float* %error}, metadata !6980), !dbg !7475
  call void @llvm.dbg.value(metadata !7300, i64 0, metadata !6980), !dbg !7475
  call void @llvm.dbg.value(metadata !7300, i64 0, metadata !6980), !dbg !7475
  call void @llvm.dbg.value(metadata !7300, i64 0, metadata !6980), !dbg !7475
  call void @llvm.dbg.value(metadata !7300, i64 0, metadata !6980), !dbg !7475
  call void @llvm.dbg.value(metadata !7300, i64 0, metadata !6980), !dbg !7475
  store float 0.000000e+00, float* %error, align 4, !dbg !7475, !tbaa !7265
  call void @llvm.dbg.value(metadata !1318, i64 0, metadata !6981), !dbg !7476
  %_M_finish.i = getelementptr inbounds %"class.std::vector.0"* %ImageMaps, i64 0, i32 0, i32 0, i32 1, !dbg !7477
  %0 = load %class.FlexImage** %_M_finish.i, align 8, !dbg !7477, !tbaa !7345
  %_M_start.i = getelementptr inbounds %"class.std::vector.0"* %ImageMaps, i64 0, i32 0, i32 0, i32 0, !dbg !7477
  %1 = load %class.FlexImage** %_M_start.i, align 8, !dbg !7477, !tbaa !7345
  %sub.ptr.lhs.cast.i34 = ptrtoint %class.FlexImage* %0 to i64, !dbg !7477
  %sub.ptr.rhs.cast.i35 = ptrtoint %class.FlexImage* %1 to i64, !dbg !7477
  %sub.ptr.sub.i36 = sub i64 %sub.ptr.lhs.cast.i34, %sub.ptr.rhs.cast.i35, !dbg !7477
  %sub.ptr.div.i37 = sdiv exact i64 %sub.ptr.sub.i36, 40, !dbg !7477
  %conv38 = trunc i64 %sub.ptr.div.i37 to i32, !dbg !7476
  %cmp39 = icmp sgt i32 %conv38, 0, !dbg !7476
  br i1 %cmp39, label %for.body.lr.ph, label %for.end13, !dbg !7476

for.body.lr.ph:                                   ; preds = %entry
  %_M_start.i.i = getelementptr inbounds %class.MultiCameraProjectedBody* %ProjBodies, i64 0, i32 0, i32 0, i32 0, i32 0, !dbg !7479
  br label %for.body, !dbg !7476

for.body:                                         ; preds = %for.inc11, %for.body.lr.ph
  %2 = phi %class.FlexImage* [ %1, %for.body.lr.ph ], [ %9, %for.inc11 ]
  %3 = phi %class.FlexImage* [ %0, %for.body.lr.ph ], [ %10, %for.inc11 ]
  %indvars.iv41 = phi i64 [ 0, %for.body.lr.ph ], [ %indvars.iv.next42, %for.inc11 ]
  tail call void @llvm.dbg.value(metadata !{%class.MultiCameraProjectedBody* %ProjBodies}, i64 0, metadata !7484), !dbg !7485
  tail call void @llvm.dbg.value(metadata !7486, i64 0, metadata !7487), !dbg !7485
  tail call void @llvm.dbg.value(metadata !{i64 %indvars.iv41}, i64 0, metadata !7488), !dbg !7489
  %4 = load %class.ProjectedBody** %_M_start.i.i, align 8, !dbg !7479, !tbaa !7345
  %_M_finish.i.i = getelementptr inbounds %class.ProjectedBody* %4, i64 %indvars.iv41, i32 0, i32 0, i32 0, i32 1, !dbg !7490
  %5 = load %class.ProjectedCylinder** %_M_finish.i.i, align 8, !dbg !7490, !tbaa !7345
  %_M_start.i.i30 = getelementptr inbounds %class.ProjectedBody* %4, i64 %indvars.iv41, i32 0, i32 0, i32 0, i32 0, !dbg !7490
  %6 = load %class.ProjectedCylinder** %_M_start.i.i30, align 8, !dbg !7490, !tbaa !7345
  %sub.ptr.lhs.cast.i.i = ptrtoint %class.ProjectedCylinder* %5 to i64, !dbg !7490
  %sub.ptr.rhs.cast.i.i = ptrtoint %class.ProjectedCylinder* %6 to i64, !dbg !7490
  %sub.ptr.sub.i.i = sub i64 %sub.ptr.lhs.cast.i.i, %sub.ptr.rhs.cast.i.i, !dbg !7490
  %sub.ptr.div.i2.i = lshr exact i64 %sub.ptr.sub.i.i, 5, !dbg !7490
  %conv.i31 = trunc i64 %sub.ptr.div.i2.i to i32, !dbg !7492
  call void @llvm.dbg.value(metadata !{i32 %conv.i31}, i64 0, metadata !6983), !dbg !7483
  call void @llvm.dbg.value(metadata !1318, i64 0, metadata !6985), !dbg !7494
  %cmp532 = icmp sgt i32 %conv.i31, 0, !dbg !7494
  br i1 %cmp532, label %for.body6, label %for.inc11, !dbg !7494

for.body6:                                        ; preds = %for.body, %for.body6.for.body6_crit_edge
  %7 = phi %class.FlexImage* [ %.pre48, %for.body6.for.body6_crit_edge ], [ %2, %for.body ]
  %8 = phi %class.ProjectedCylinder* [ %.pre47, %for.body6.for.body6_crit_edge ], [ %6, %for.body ]
  %indvars.iv = phi i64 [ %indvars.iv.next, %for.body6.for.body6_crit_edge ], [ 0, %for.body ]
  tail call void @llvm.dbg.value(metadata !{%class.MultiCameraProjectedBody* %ProjBodies}, i64 0, metadata !7495), !dbg !7497
  tail call void @llvm.dbg.value(metadata !7486, i64 0, metadata !7498), !dbg !7497
  tail call void @llvm.dbg.value(metadata !{i64 %indvars.iv41}, i64 0, metadata !7499), !dbg !7501
  tail call void @llvm.dbg.value(metadata !7486, i64 0, metadata !7502), !dbg !7503
  tail call void @llvm.dbg.value(metadata !{i64 %indvars.iv}, i64 0, metadata !7504), !dbg !7507
  %add.ptr.i.i26 = getelementptr inbounds %class.ProjectedCylinder* %8, i64 %indvars.iv, !dbg !7508
  tail call void @llvm.dbg.value(metadata !{%"class.std::vector.0"* %ImageMaps}, i64 0, metadata !7510), !dbg !7511
  tail call void @llvm.dbg.value(metadata !{i64 %indvars.iv41}, i64 0, metadata !7512), !dbg !7511
  %add.ptr.i = getelementptr inbounds %class.FlexImage* %7, i64 %indvars.iv41, !dbg !7513
  call void @_ZN17ImageMeasurements9EdgeErrorERK17ProjectedCylinderRK9FlexImageIhLi1EERfRi(%class.ImageMeasurements* %this, %class.ProjectedCylinder* %add.ptr.i.i26, %class.FlexImage* %add.ptr.i, float* %error, i32* %samples), !dbg !7496
  %indvars.iv.next = add i64 %indvars.iv, 1, !dbg !7494
  %lftr.wideiv = trunc i64 %indvars.iv.next to i32, !dbg !7494
  %exitcond = icmp eq i32 %lftr.wideiv, %conv.i31, !dbg !7494
  br i1 %exitcond, label %for.cond4.for.inc11_crit_edge, label %for.body6.for.body6_crit_edge, !dbg !7494

for.body6.for.body6_crit_edge:                    ; preds = %for.body6
  %.pre46 = load %class.ProjectedBody** %_M_start.i.i, align 8, !dbg !7515, !tbaa !7345
  %_M_start.i.i25.phi.trans.insert = getelementptr inbounds %class.ProjectedBody* %.pre46, i64 %indvars.iv41, i32 0, i32 0, i32 0, i32 0
  %.pre47 = load %class.ProjectedCylinder** %_M_start.i.i25.phi.trans.insert, align 8, !dbg !7508, !tbaa !7345
  %.pre48 = load %class.FlexImage** %_M_start.i, align 8, !dbg !7513, !tbaa !7345
  br label %for.body6, !dbg !7494

for.cond4.for.inc11_crit_edge:                    ; preds = %for.body6
  %.pre44 = load %class.FlexImage** %_M_finish.i, align 8, !dbg !7477, !tbaa !7345
  %.pre45 = load %class.FlexImage** %_M_start.i, align 8, !dbg !7477, !tbaa !7345
  br label %for.inc11, !dbg !7494

for.inc11:                                        ; preds = %for.cond4.for.inc11_crit_edge, %for.body
  %9 = phi %class.FlexImage* [ %.pre45, %for.cond4.for.inc11_crit_edge ], [ %2, %for.body ], !dbg !7476
  %10 = phi %class.FlexImage* [ %.pre44, %for.cond4.for.inc11_crit_edge ], [ %3, %for.body ], !dbg !7476
  %indvars.iv.next42 = add i64 %indvars.iv41, 1, !dbg !7476
  tail call void @llvm.dbg.value(metadata !{%"class.std::vector.0"* %ImageMaps}, i64 0, metadata !7516), !dbg !7517
  %sub.ptr.lhs.cast.i = ptrtoint %class.FlexImage* %10 to i64, !dbg !7477
  %sub.ptr.rhs.cast.i = ptrtoint %class.FlexImage* %9 to i64, !dbg !7477
  %sub.ptr.sub.i = sub i64 %sub.ptr.lhs.cast.i, %sub.ptr.rhs.cast.i, !dbg !7477
  %sub.ptr.div.i = sdiv exact i64 %sub.ptr.sub.i, 40, !dbg !7477
  %conv = trunc i64 %sub.ptr.div.i to i32, !dbg !7476
  %11 = trunc i64 %indvars.iv.next42 to i32, !dbg !7476
  %cmp = icmp slt i32 %11, %conv, !dbg !7476
  br i1 %cmp, label %for.body, label %for.cond.for.end13_crit_edge, !dbg !7476

for.cond.for.end13_crit_edge:                     ; preds = %for.inc11
  call void @llvm.dbg.value(metadata !{float* %error}, i64 0, metadata !6980), !dbg !7518
  call void @llvm.dbg.value(metadata !{float* %error}, i64 0, metadata !6980), !dbg !7518
  %.pre = load float* %error, align 4, !dbg !7518, !tbaa !7265
  call void @llvm.dbg.value(metadata !{i32* %samples}, i64 0, metadata !6978), !dbg !7518
  call void @llvm.dbg.value(metadata !{i32* %samples}, i64 0, metadata !6978), !dbg !7518
  %.pre43 = load i32* %samples, align 4, !dbg !7518, !tbaa !7333
  %phitmp = sitofp i32 %.pre43 to float, !dbg !7476
  br label %for.end13, !dbg !7476

for.end13:                                        ; preds = %for.cond.for.end13_crit_edge, %entry
  %12 = phi float [ %phitmp, %for.cond.for.end13_crit_edge ], [ 0.000000e+00, %entry ]
  %13 = phi float [ %.pre, %for.cond.for.end13_crit_edge ], [ 0.000000e+00, %entry ]
  call void @llvm.dbg.value(metadata !{float* %error}, i64 0, metadata !6980), !dbg !7518
  call void @llvm.dbg.value(metadata !{float* %error}, i64 0, metadata !6980), !dbg !7518
  call void @llvm.dbg.value(metadata !{float* %error}, i64 0, metadata !6980), !dbg !7518
  call void @llvm.dbg.value(metadata !{i32* %samples}, i64 0, metadata !6978), !dbg !7518
  call void @llvm.dbg.value(metadata !{i32* %samples}, i64 0, metadata !6978), !dbg !7518
  call void @llvm.dbg.value(metadata !{i32* %samples}, i64 0, metadata !6978), !dbg !7518
  %div = fdiv float %13, %12, !dbg !7518
  ret float %div, !dbg !7518
}

define float @_ZN17ImageMeasurements16ImageErrorInsideERSt6vectorI11BinaryImageSaIS1_EER24MultiCameraProjectedBody(%class.ImageMeasurements* nocapture %this, %"class.std::vector.15"* nocapture %ImageMaps, %class.MultiCameraProjectedBody* nocapture %ProjBodies) uwtable align 2 {
entry:
  %samples = alloca i32, align 4
  %error = alloca i32, align 4
  call void @llvm.dbg.value(metadata !{%class.ImageMeasurements* %this}, i64 0, metadata !6990), !dbg !7519
  call void @llvm.dbg.value(metadata !{%"class.std::vector.15"* %ImageMaps}, i64 0, metadata !6991), !dbg !7519
  call void @llvm.dbg.value(metadata !{%class.MultiCameraProjectedBody* %ProjBodies}, i64 0, metadata !6992), !dbg !7519
  call void @llvm.dbg.declare(metadata !{i32* %samples}, metadata !6993), !dbg !7520
  call void @llvm.dbg.value(metadata !1318, i64 0, metadata !6993), !dbg !7520
  call void @llvm.dbg.value(metadata !1318, i64 0, metadata !6993), !dbg !7520
  call void @llvm.dbg.value(metadata !1318, i64 0, metadata !6993), !dbg !7520
  call void @llvm.dbg.value(metadata !1318, i64 0, metadata !6993), !dbg !7520
  call void @llvm.dbg.value(metadata !1318, i64 0, metadata !6993), !dbg !7520
  store i32 0, i32* %samples, align 4, !dbg !7520, !tbaa !7333
  call void @llvm.dbg.declare(metadata !{i32* %error}, metadata !6995), !dbg !7521
  call void @llvm.dbg.value(metadata !1318, i64 0, metadata !6995), !dbg !7521
  call void @llvm.dbg.value(metadata !1318, i64 0, metadata !6995), !dbg !7521
  call void @llvm.dbg.value(metadata !1318, i64 0, metadata !6995), !dbg !7521
  call void @llvm.dbg.value(metadata !1318, i64 0, metadata !6995), !dbg !7521
  call void @llvm.dbg.value(metadata !1318, i64 0, metadata !6995), !dbg !7521
  store i32 0, i32* %error, align 4, !dbg !7521, !tbaa !7333
  call void @llvm.dbg.value(metadata !1318, i64 0, metadata !6996), !dbg !7522
  %_M_finish.i = getelementptr inbounds %"class.std::vector.15"* %ImageMaps, i64 0, i32 0, i32 0, i32 1, !dbg !7523
  %0 = load %class.BinaryImage** %_M_finish.i, align 8, !dbg !7523, !tbaa !7345
  %_M_start.i = getelementptr inbounds %"class.std::vector.15"* %ImageMaps, i64 0, i32 0, i32 0, i32 0, !dbg !7523
  %1 = load %class.BinaryImage** %_M_start.i, align 8, !dbg !7523, !tbaa !7345
  %sub.ptr.lhs.cast.i35 = ptrtoint %class.BinaryImage* %0 to i64, !dbg !7523
  %sub.ptr.rhs.cast.i36 = ptrtoint %class.BinaryImage* %1 to i64, !dbg !7523
  %sub.ptr.sub.i37 = sub i64 %sub.ptr.lhs.cast.i35, %sub.ptr.rhs.cast.i36, !dbg !7523
  %sub.ptr.div.i38 = sdiv exact i64 %sub.ptr.sub.i37, 24, !dbg !7523
  %conv39 = trunc i64 %sub.ptr.div.i38 to i32, !dbg !7522
  %cmp40 = icmp sgt i32 %conv39, 0, !dbg !7522
  br i1 %cmp40, label %for.body.lr.ph, label %for.end13, !dbg !7522

for.body.lr.ph:                                   ; preds = %entry
  %_M_start.i.i = getelementptr inbounds %class.MultiCameraProjectedBody* %ProjBodies, i64 0, i32 0, i32 0, i32 0, i32 0, !dbg !7525
  br label %for.body, !dbg !7522

for.body:                                         ; preds = %for.inc11, %for.body.lr.ph
  %2 = phi %class.BinaryImage* [ %1, %for.body.lr.ph ], [ %9, %for.inc11 ]
  %3 = phi %class.BinaryImage* [ %0, %for.body.lr.ph ], [ %10, %for.inc11 ]
  %indvars.iv42 = phi i64 [ 0, %for.body.lr.ph ], [ %indvars.iv.next43, %for.inc11 ]
  tail call void @llvm.dbg.value(metadata !{%class.MultiCameraProjectedBody* %ProjBodies}, i64 0, metadata !7528), !dbg !7529
  tail call void @llvm.dbg.value(metadata !7486, i64 0, metadata !7530), !dbg !7529
  tail call void @llvm.dbg.value(metadata !{i64 %indvars.iv42}, i64 0, metadata !7531), !dbg !7532
  %4 = load %class.ProjectedBody** %_M_start.i.i, align 8, !dbg !7525, !tbaa !7345
  %_M_finish.i.i = getelementptr inbounds %class.ProjectedBody* %4, i64 %indvars.iv42, i32 0, i32 0, i32 0, i32 1, !dbg !7533
  %5 = load %class.ProjectedCylinder** %_M_finish.i.i, align 8, !dbg !7533, !tbaa !7345
  %_M_start.i.i31 = getelementptr inbounds %class.ProjectedBody* %4, i64 %indvars.iv42, i32 0, i32 0, i32 0, i32 0, !dbg !7533
  %6 = load %class.ProjectedCylinder** %_M_start.i.i31, align 8, !dbg !7533, !tbaa !7345
  %sub.ptr.lhs.cast.i.i = ptrtoint %class.ProjectedCylinder* %5 to i64, !dbg !7533
  %sub.ptr.rhs.cast.i.i = ptrtoint %class.ProjectedCylinder* %6 to i64, !dbg !7533
  %sub.ptr.sub.i.i = sub i64 %sub.ptr.lhs.cast.i.i, %sub.ptr.rhs.cast.i.i, !dbg !7533
  %sub.ptr.div.i2.i = lshr exact i64 %sub.ptr.sub.i.i, 5, !dbg !7533
  %conv.i32 = trunc i64 %sub.ptr.div.i2.i to i32, !dbg !7534
  call void @llvm.dbg.value(metadata !{i32 %conv.i32}, i64 0, metadata !6998), !dbg !7527
  call void @llvm.dbg.value(metadata !1318, i64 0, metadata !7000), !dbg !7535
  %cmp533 = icmp sgt i32 %conv.i32, 0, !dbg !7535
  br i1 %cmp533, label %for.body6, label %for.inc11, !dbg !7535

for.body6:                                        ; preds = %for.body, %for.body6.for.body6_crit_edge
  %7 = phi %class.BinaryImage* [ %.pre49, %for.body6.for.body6_crit_edge ], [ %2, %for.body ]
  %8 = phi %class.ProjectedCylinder* [ %.pre48, %for.body6.for.body6_crit_edge ], [ %6, %for.body ]
  %indvars.iv = phi i64 [ %indvars.iv.next, %for.body6.for.body6_crit_edge ], [ 0, %for.body ]
  tail call void @llvm.dbg.value(metadata !{%class.MultiCameraProjectedBody* %ProjBodies}, i64 0, metadata !7536), !dbg !7538
  tail call void @llvm.dbg.value(metadata !7486, i64 0, metadata !7539), !dbg !7538
  tail call void @llvm.dbg.value(metadata !{i64 %indvars.iv42}, i64 0, metadata !7540), !dbg !7542
  tail call void @llvm.dbg.value(metadata !7486, i64 0, metadata !7543), !dbg !7544
  tail call void @llvm.dbg.value(metadata !{i64 %indvars.iv}, i64 0, metadata !7545), !dbg !7547
  %add.ptr.i.i27 = getelementptr inbounds %class.ProjectedCylinder* %8, i64 %indvars.iv, !dbg !7548
  tail call void @llvm.dbg.value(metadata !{%"class.std::vector.15"* %ImageMaps}, i64 0, metadata !7549), !dbg !7550
  tail call void @llvm.dbg.value(metadata !{i64 %indvars.iv42}, i64 0, metadata !7551), !dbg !7550
  %add.ptr.i = getelementptr inbounds %class.BinaryImage* %7, i64 %indvars.iv42, !dbg !7552
  call void @_ZN17ImageMeasurements11InsideErrorERK17ProjectedCylinderRK11BinaryImageRiS6_(%class.ImageMeasurements* %this, %class.ProjectedCylinder* %add.ptr.i.i27, %class.BinaryImage* %add.ptr.i, i32* %error, i32* %samples), !dbg !7537
  %indvars.iv.next = add i64 %indvars.iv, 1, !dbg !7535
  %lftr.wideiv = trunc i64 %indvars.iv.next to i32, !dbg !7535
  %exitcond = icmp eq i32 %lftr.wideiv, %conv.i32, !dbg !7535
  br i1 %exitcond, label %for.cond4.for.inc11_crit_edge, label %for.body6.for.body6_crit_edge, !dbg !7535

for.body6.for.body6_crit_edge:                    ; preds = %for.body6
  %.pre47 = load %class.ProjectedBody** %_M_start.i.i, align 8, !dbg !7554, !tbaa !7345
  %_M_start.i.i26.phi.trans.insert = getelementptr inbounds %class.ProjectedBody* %.pre47, i64 %indvars.iv42, i32 0, i32 0, i32 0, i32 0
  %.pre48 = load %class.ProjectedCylinder** %_M_start.i.i26.phi.trans.insert, align 8, !dbg !7548, !tbaa !7345
  %.pre49 = load %class.BinaryImage** %_M_start.i, align 8, !dbg !7552, !tbaa !7345
  br label %for.body6, !dbg !7535

for.cond4.for.inc11_crit_edge:                    ; preds = %for.body6
  %.pre45 = load %class.BinaryImage** %_M_finish.i, align 8, !dbg !7523, !tbaa !7345
  %.pre46 = load %class.BinaryImage** %_M_start.i, align 8, !dbg !7523, !tbaa !7345
  br label %for.inc11, !dbg !7535

for.inc11:                                        ; preds = %for.cond4.for.inc11_crit_edge, %for.body
  %9 = phi %class.BinaryImage* [ %.pre46, %for.cond4.for.inc11_crit_edge ], [ %2, %for.body ], !dbg !7522
  %10 = phi %class.BinaryImage* [ %.pre45, %for.cond4.for.inc11_crit_edge ], [ %3, %for.body ], !dbg !7522
  %indvars.iv.next43 = add i64 %indvars.iv42, 1, !dbg !7522
  tail call void @llvm.dbg.value(metadata !{%"class.std::vector.15"* %ImageMaps}, i64 0, metadata !7555), !dbg !7556
  %sub.ptr.lhs.cast.i = ptrtoint %class.BinaryImage* %10 to i64, !dbg !7523
  %sub.ptr.rhs.cast.i = ptrtoint %class.BinaryImage* %9 to i64, !dbg !7523
  %sub.ptr.sub.i = sub i64 %sub.ptr.lhs.cast.i, %sub.ptr.rhs.cast.i, !dbg !7523
  %sub.ptr.div.i = sdiv exact i64 %sub.ptr.sub.i, 24, !dbg !7523
  %conv = trunc i64 %sub.ptr.div.i to i32, !dbg !7522
  %11 = trunc i64 %indvars.iv.next43 to i32, !dbg !7522
  %cmp = icmp slt i32 %11, %conv, !dbg !7522
  br i1 %cmp, label %for.body, label %for.cond.for.end13_crit_edge, !dbg !7522

for.cond.for.end13_crit_edge:                     ; preds = %for.inc11
  call void @llvm.dbg.value(metadata !{i32* %error}, i64 0, metadata !6995), !dbg !7557
  call void @llvm.dbg.value(metadata !{i32* %error}, i64 0, metadata !6995), !dbg !7557
  %.pre = load i32* %error, align 4, !dbg !7557, !tbaa !7333
  call void @llvm.dbg.value(metadata !{i32* %samples}, i64 0, metadata !6993), !dbg !7557
  call void @llvm.dbg.value(metadata !{i32* %samples}, i64 0, metadata !6993), !dbg !7557
  %.pre44 = load i32* %samples, align 4, !dbg !7557, !tbaa !7333
  %phitmp = sitofp i32 %.pre to float, !dbg !7522
  %phitmp50 = sitofp i32 %.pre44 to float, !dbg !7522
  br label %for.end13, !dbg !7522

for.end13:                                        ; preds = %for.cond.for.end13_crit_edge, %entry
  %12 = phi float [ %phitmp50, %for.cond.for.end13_crit_edge ], [ 0.000000e+00, %entry ]
  %13 = phi float [ %phitmp, %for.cond.for.end13_crit_edge ], [ 0.000000e+00, %entry ]
  call void @llvm.dbg.value(metadata !{i32* %error}, i64 0, metadata !6995), !dbg !7557
  call void @llvm.dbg.value(metadata !{i32* %error}, i64 0, metadata !6995), !dbg !7557
  call void @llvm.dbg.value(metadata !{i32* %error}, i64 0, metadata !6995), !dbg !7557
  call void @llvm.dbg.value(metadata !{i32* %samples}, i64 0, metadata !6993), !dbg !7557
  call void @llvm.dbg.value(metadata !{i32* %samples}, i64 0, metadata !6993), !dbg !7557
  call void @llvm.dbg.value(metadata !{i32* %samples}, i64 0, metadata !6993), !dbg !7557
  %div = fdiv float %13, %12, !dbg !7557
  ret float %div, !dbg !7557
}

declare double @sqrt(double) nounwind

define internal void @_GLOBAL__I_a() section ".text.startup" {
entry:
  tail call void @_ZNSt8ios_base4InitC1Ev(%"class.std::ios_base::Init"* @_ZStL8__ioinit), !dbg !7558
  %0 = tail call i32 @__cxa_atexit(void (i8*)* bitcast (void (%"class.std::ios_base::Init"*)* @_ZNSt8ios_base4InitD1Ev to void (i8*)*), i8* getelementptr inbounds (%"class.std::ios_base::Init"* @_ZStL8__ioinit, i64 0, i32 0), i8* @__dso_handle) nounwind, !dbg !7558
  ret void, !dbg !7559
}

declare void @llvm.dbg.value(metadata, i64, metadata) nounwind readnone

!llvm.dbg.cu = !{!0}

!0 = metadata !{i32 786449, i32 0, i32 4, metadata !"ImageMeasurements.cpp", metadata !"/home/asit/AC-workdir/AxC-SVN-SHARED-REPO/axc/workloads/bodytrack-PARSEC/src/TrackingBenchmark", metadata !"clang version 3.2 (tags/RELEASE_32/final)", i1 true, i1 true, metadata !"", i32 0, metadata !1, metadata !1317, metadata !1319, metadata !7178} ; [ DW_TAG_compile_unit ] [/home/asit/AC-workdir/AxC-SVN-SHARED-REPO/axc/workloads/bodytrack-PARSEC/src/TrackingBenchmark/ImageMeasurements.cpp] [DW_LANG_C_plus_plus]
!1 = metadata !{metadata !2}
!2 = metadata !{metadata !3, metadata !26, metadata !33, metadata !42, metadata !48, metadata !1298, metadata !1304, metadata !1310}
!3 = metadata !{i32 786436, metadata !4, metadata !"_Ios_Fmtflags", metadata !5, i32 52, i64 32, i64 32, i32 0, i32 0, null, metadata !6, i32 0, i32 0} ; [ DW_TAG_enumeration_type ] [_Ios_Fmtflags] [line 52, size 32, align 32, offset 0] [from ]
!4 = metadata !{i32 786489, null, metadata !"std", metadata !5, i32 44} ; [ DW_TAG_namespace ] [/home/asit/AC-workdir/AxC-SVN-SHARED-REPO/axc/workloads/bodytrack-PARSEC/src/TrackingBenchmark//usr/lib/gcc/x86_64-redhat-linux/4.6.3/../../../../include/c++/4.6.3/bits/ios_base.h]
!5 = metadata !{i32 786473, metadata !"/usr/lib/gcc/x86_64-redhat-linux/4.6.3/../../../../include/c++/4.6.3/bits/ios_base.h", metadata !"/home/asit/AC-workdir/AxC-SVN-SHARED-REPO/axc/workloads/bodytrack-PARSEC/src/TrackingBenchmark", null} ; [ DW_TAG_file_type ]
!6 = metadata !{metadata !7, metadata !8, metadata !9, metadata !10, metadata !11, metadata !12, metadata !13, metadata !14, metadata !15, metadata !16, metadata !17, metadata !18, metadata !19, metadata !20, metadata !21, metadata !22, metadata !23, metadata !24, metadata !25}
!7 = metadata !{i32 786472, metadata !"_S_boolalpha", i64 1} ; [ DW_TAG_enumerator ] [_S_boolalpha :: 1]
!8 = metadata !{i32 786472, metadata !"_S_dec", i64 2} ; [ DW_TAG_enumerator ] [_S_dec :: 2]
!9 = metadata !{i32 786472, metadata !"_S_fixed", i64 4} ; [ DW_TAG_enumerator ] [_S_fixed :: 4]
!10 = metadata !{i32 786472, metadata !"_S_hex", i64 8} ; [ DW_TAG_enumerator ] [_S_hex :: 8]
!11 = metadata !{i32 786472, metadata !"_S_internal", i64 16} ; [ DW_TAG_enumerator ] [_S_internal :: 16]
!12 = metadata !{i32 786472, metadata !"_S_left", i64 32} ; [ DW_TAG_enumerator ] [_S_left :: 32]
!13 = metadata !{i32 786472, metadata !"_S_oct", i64 64} ; [ DW_TAG_enumerator ] [_S_oct :: 64]
!14 = metadata !{i32 786472, metadata !"_S_right", i64 128} ; [ DW_TAG_enumerator ] [_S_right :: 128]
!15 = metadata !{i32 786472, metadata !"_S_scientific", i64 256} ; [ DW_TAG_enumerator ] [_S_scientific :: 256]
!16 = metadata !{i32 786472, metadata !"_S_showbase", i64 512} ; [ DW_TAG_enumerator ] [_S_showbase :: 512]
!17 = metadata !{i32 786472, metadata !"_S_showpoint", i64 1024} ; [ DW_TAG_enumerator ] [_S_showpoint :: 1024]
!18 = metadata !{i32 786472, metadata !"_S_showpos", i64 2048} ; [ DW_TAG_enumerator ] [_S_showpos :: 2048]
!19 = metadata !{i32 786472, metadata !"_S_skipws", i64 4096} ; [ DW_TAG_enumerator ] [_S_skipws :: 4096]
!20 = metadata !{i32 786472, metadata !"_S_unitbuf", i64 8192} ; [ DW_TAG_enumerator ] [_S_unitbuf :: 8192]
!21 = metadata !{i32 786472, metadata !"_S_uppercase", i64 16384} ; [ DW_TAG_enumerator ] [_S_uppercase :: 16384]
!22 = metadata !{i32 786472, metadata !"_S_adjustfield", i64 176} ; [ DW_TAG_enumerator ] [_S_adjustfield :: 176]
!23 = metadata !{i32 786472, metadata !"_S_basefield", i64 74} ; [ DW_TAG_enumerator ] [_S_basefield :: 74]
!24 = metadata !{i32 786472, metadata !"_S_floatfield", i64 260} ; [ DW_TAG_enumerator ] [_S_floatfield :: 260]
!25 = metadata !{i32 786472, metadata !"_S_ios_fmtflags_end", i64 65536} ; [ DW_TAG_enumerator ] [_S_ios_fmtflags_end :: 65536]
!26 = metadata !{i32 786436, metadata !4, metadata !"_Ios_Iostate", metadata !5, i32 144, i64 32, i64 32, i32 0, i32 0, null, metadata !27, i32 0, i32 0} ; [ DW_TAG_enumeration_type ] [_Ios_Iostate] [line 144, size 32, align 32, offset 0] [from ]
!27 = metadata !{metadata !28, metadata !29, metadata !30, metadata !31, metadata !32}
!28 = metadata !{i32 786472, metadata !"_S_goodbit", i64 0} ; [ DW_TAG_enumerator ] [_S_goodbit :: 0]
!29 = metadata !{i32 786472, metadata !"_S_badbit", i64 1} ; [ DW_TAG_enumerator ] [_S_badbit :: 1]
!30 = metadata !{i32 786472, metadata !"_S_eofbit", i64 2} ; [ DW_TAG_enumerator ] [_S_eofbit :: 2]
!31 = metadata !{i32 786472, metadata !"_S_failbit", i64 4} ; [ DW_TAG_enumerator ] [_S_failbit :: 4]
!32 = metadata !{i32 786472, metadata !"_S_ios_iostate_end", i64 65536} ; [ DW_TAG_enumerator ] [_S_ios_iostate_end :: 65536]
!33 = metadata !{i32 786436, metadata !4, metadata !"_Ios_Openmode", metadata !5, i32 104, i64 32, i64 32, i32 0, i32 0, null, metadata !34, i32 0, i32 0} ; [ DW_TAG_enumeration_type ] [_Ios_Openmode] [line 104, size 32, align 32, offset 0] [from ]
!34 = metadata !{metadata !35, metadata !36, metadata !37, metadata !38, metadata !39, metadata !40, metadata !41}
!35 = metadata !{i32 786472, metadata !"_S_app", i64 1} ; [ DW_TAG_enumerator ] [_S_app :: 1]
!36 = metadata !{i32 786472, metadata !"_S_ate", i64 2} ; [ DW_TAG_enumerator ] [_S_ate :: 2]
!37 = metadata !{i32 786472, metadata !"_S_bin", i64 4} ; [ DW_TAG_enumerator ] [_S_bin :: 4]
!38 = metadata !{i32 786472, metadata !"_S_in", i64 8} ; [ DW_TAG_enumerator ] [_S_in :: 8]
!39 = metadata !{i32 786472, metadata !"_S_out", i64 16} ; [ DW_TAG_enumerator ] [_S_out :: 16]
!40 = metadata !{i32 786472, metadata !"_S_trunc", i64 32} ; [ DW_TAG_enumerator ] [_S_trunc :: 32]
!41 = metadata !{i32 786472, metadata !"_S_ios_openmode_end", i64 65536} ; [ DW_TAG_enumerator ] [_S_ios_openmode_end :: 65536]
!42 = metadata !{i32 786436, metadata !4, metadata !"_Ios_Seekdir", metadata !5, i32 182, i64 32, i64 32, i32 0, i32 0, null, metadata !43, i32 0, i32 0} ; [ DW_TAG_enumeration_type ] [_Ios_Seekdir] [line 182, size 32, align 32, offset 0] [from ]
!43 = metadata !{metadata !44, metadata !45, metadata !46, metadata !47}
!44 = metadata !{i32 786472, metadata !"_S_beg", i64 0} ; [ DW_TAG_enumerator ] [_S_beg :: 0]
!45 = metadata !{i32 786472, metadata !"_S_cur", i64 1} ; [ DW_TAG_enumerator ] [_S_cur :: 1]
!46 = metadata !{i32 786472, metadata !"_S_end", i64 2} ; [ DW_TAG_enumerator ] [_S_end :: 2]
!47 = metadata !{i32 786472, metadata !"_S_ios_seekdir_end", i64 65536} ; [ DW_TAG_enumerator ] [_S_ios_seekdir_end :: 65536]
!48 = metadata !{i32 786436, metadata !49, metadata !"event", metadata !5, i32 420, i64 32, i64 32, i32 0, i32 0, null, metadata !1294, i32 0, i32 0} ; [ DW_TAG_enumeration_type ] [event] [line 420, size 32, align 32, offset 0] [from ]
!49 = metadata !{i32 786434, metadata !4, metadata !"ios_base", metadata !5, i32 200, i64 1728, i64 64, i32 0, i32 0, null, metadata !50, i32 0, metadata !49, null} ; [ DW_TAG_class_type ] [ios_base] [line 200, size 1728, align 64, offset 0] [from ]
!50 = metadata !{metadata !51, metadata !57, metadata !65, metadata !66, metadata !68, metadata !70, metadata !71, metadata !74, metadata !86, metadata !90, metadata !91, metadata !93, metadata !1171, metadata !1182, metadata !1187, metadata !1192, metadata !1198, metadata !1201, metadata !1208, metadata !1213, metadata !1216, metadata !1221, metadata !1226, metadata !1231, metadata !1236, metadata !1239, metadata !1242, metadata !1247, metadata !1252, metadata !1257, metadata !1262, metadata !1265, metadata !1271, metadata !1277, metadata !1280, metadata !1283, metadata !1289}
!51 = metadata !{i32 786445, metadata !5, metadata !"_vptr$ios_base", metadata !5, i32 0, i64 64, i64 0, i64 0, i32 0, metadata !52} ; [ DW_TAG_member ] [_vptr$ios_base] [line 0, size 64, align 0, offset 0] [from ]
!52 = metadata !{i32 786447, null, metadata !"", null, i32 0, i64 64, i64 0, i64 0, i32 0, metadata !53} ; [ DW_TAG_pointer_type ] [line 0, size 64, align 0, offset 0] [from __vtbl_ptr_type]
!53 = metadata !{i32 786447, null, metadata !"__vtbl_ptr_type", null, i32 0, i64 64, i64 0, i64 0, i32 0, metadata !54} ; [ DW_TAG_pointer_type ] [__vtbl_ptr_type] [line 0, size 64, align 0, offset 0] [from ]
!54 = metadata !{i32 786453, i32 0, metadata !"", i32 0, i32 0, i64 0, i64 0, i64 0, i32 0, null, metadata !55, i32 0, i32 0} ; [ DW_TAG_subroutine_type ] [line 0, size 0, align 0, offset 0] [from ]
!55 = metadata !{metadata !56}
!56 = metadata !{i32 786468, null, metadata !"int", null, i32 0, i64 32, i64 32, i64 0, i32 0, i32 5} ; [ DW_TAG_base_type ] [int] [line 0, size 32, align 32, offset 0, enc DW_ATE_signed]
!57 = metadata !{i32 786445, metadata !49, metadata !"_M_precision", metadata !5, i32 453, i64 64, i64 64, i64 64, i32 2, metadata !58} ; [ DW_TAG_member ] [_M_precision] [line 453, size 64, align 64, offset 64] [protected] [from streamsize]
!58 = metadata !{i32 786454, metadata !59, metadata !"streamsize", metadata !5, i32 99, i64 0, i64 0, i64 0, i32 0, metadata !61} ; [ DW_TAG_typedef ] [streamsize] [line 99, size 0, align 0, offset 0] [from ptrdiff_t]
!59 = metadata !{i32 786489, null, metadata !"std", metadata !60, i32 69} ; [ DW_TAG_namespace ] [/home/asit/AC-workdir/AxC-SVN-SHARED-REPO/axc/workloads/bodytrack-PARSEC/src/TrackingBenchmark//usr/lib/gcc/x86_64-redhat-linux/4.6.3/../../../../include/c++/4.6.3/bits/postypes.h]
!60 = metadata !{i32 786473, metadata !"/usr/lib/gcc/x86_64-redhat-linux/4.6.3/../../../../include/c++/4.6.3/bits/postypes.h", metadata !"/home/asit/AC-workdir/AxC-SVN-SHARED-REPO/axc/workloads/bodytrack-PARSEC/src/TrackingBenchmark", null} ; [ DW_TAG_file_type ]
!61 = metadata !{i32 786454, metadata !62, metadata !"ptrdiff_t", metadata !5, i32 1738, i64 0, i64 0, i64 0, i32 0, metadata !64} ; [ DW_TAG_typedef ] [ptrdiff_t] [line 1738, size 0, align 0, offset 0] [from long int]
!62 = metadata !{i32 786489, null, metadata !"std", metadata !63, i32 1735} ; [ DW_TAG_namespace ] [/home/asit/AC-workdir/AxC-SVN-SHARED-REPO/axc/workloads/bodytrack-PARSEC/src/TrackingBenchmark//usr/lib/gcc/x86_64-redhat-linux/4.6.3/../../../../include/c++/4.6.3/x86_64-redhat-linux/bits/c++config.h]
!63 = metadata !{i32 786473, metadata !"/usr/lib/gcc/x86_64-redhat-linux/4.6.3/../../../../include/c++/4.6.3/x86_64-redhat-linux/bits/c++config.h", metadata !"/home/asit/AC-workdir/AxC-SVN-SHARED-REPO/axc/workloads/bodytrack-PARSEC/src/TrackingBenchmark", null} ; [ DW_TAG_file_type ]
!64 = metadata !{i32 786468, null, metadata !"long int", null, i32 0, i64 64, i64 64, i64 0, i32 0, i32 5} ; [ DW_TAG_base_type ] [long int] [line 0, size 64, align 64, offset 0, enc DW_ATE_signed]
!65 = metadata !{i32 786445, metadata !49, metadata !"_M_width", metadata !5, i32 454, i64 64, i64 64, i64 128, i32 2, metadata !58} ; [ DW_TAG_member ] [_M_width] [line 454, size 64, align 64, offset 128] [protected] [from streamsize]
!66 = metadata !{i32 786445, metadata !49, metadata !"_M_flags", metadata !5, i32 455, i64 32, i64 32, i64 192, i32 2, metadata !67} ; [ DW_TAG_member ] [_M_flags] [line 455, size 32, align 32, offset 192] [protected] [from fmtflags]
!67 = metadata !{i32 786454, metadata !49, metadata !"fmtflags", metadata !5, i32 256, i64 0, i64 0, i64 0, i32 0, metadata !3} ; [ DW_TAG_typedef ] [fmtflags] [line 256, size 0, align 0, offset 0] [from _Ios_Fmtflags]
!68 = metadata !{i32 786445, metadata !49, metadata !"_M_exception", metadata !5, i32 456, i64 32, i64 32, i64 224, i32 2, metadata !69} ; [ DW_TAG_member ] [_M_exception] [line 456, size 32, align 32, offset 224] [protected] [from iostate]
!69 = metadata !{i32 786454, metadata !49, metadata !"iostate", metadata !5, i32 331, i64 0, i64 0, i64 0, i32 0, metadata !26} ; [ DW_TAG_typedef ] [iostate] [line 331, size 0, align 0, offset 0] [from _Ios_Iostate]
!70 = metadata !{i32 786445, metadata !49, metadata !"_M_streambuf_state", metadata !5, i32 457, i64 32, i64 32, i64 256, i32 2, metadata !69} ; [ DW_TAG_member ] [_M_streambuf_state] [line 457, size 32, align 32, offset 256] [protected] [from iostate]
!71 = metadata !{i32 786445, metadata !49, metadata !"_M_callbacks", metadata !5, i32 491, i64 64, i64 64, i64 320, i32 2, metadata !72} ; [ DW_TAG_member ] [_M_callbacks] [line 491, size 64, align 64, offset 320] [protected] [from ]
!72 = metadata !{i32 786447, null, metadata !"", null, i32 0, i64 64, i64 64, i64 0, i32 0, metadata !73} ; [ DW_TAG_pointer_type ] [line 0, size 64, align 64, offset 0] [from _Callback_list]
!73 = metadata !{i32 786451, metadata !49, metadata !"_Callback_list", metadata !5, i32 461, i64 0, i64 0, i32 0, i32 4, null, null, i32 0} ; [ DW_TAG_structure_type ] [_Callback_list] [line 461, size 0, align 0, offset 0] [fwd] [from ]
!74 = metadata !{i32 786445, metadata !49, metadata !"_M_word_zero", metadata !5, i32 508, i64 128, i64 64, i64 384, i32 2, metadata !75} ; [ DW_TAG_member ] [_M_word_zero] [line 508, size 128, align 64, offset 384] [protected] [from _Words]
!75 = metadata !{i32 786451, metadata !49, metadata !"_Words", metadata !5, i32 500, i64 128, i64 64, i32 0, i32 0, null, metadata !76, i32 0, null, null} ; [ DW_TAG_structure_type ] [_Words] [line 500, size 128, align 64, offset 0] [from ]
!76 = metadata !{metadata !77, metadata !79, metadata !80}
!77 = metadata !{i32 786445, metadata !75, metadata !"_M_pword", metadata !5, i32 502, i64 64, i64 64, i64 0, i32 0, metadata !78} ; [ DW_TAG_member ] [_M_pword] [line 502, size 64, align 64, offset 0] [from ]
!78 = metadata !{i32 786447, null, metadata !"", null, i32 0, i64 64, i64 64, i64 0, i32 0, null} ; [ DW_TAG_pointer_type ] [line 0, size 64, align 64, offset 0] [from ]
!79 = metadata !{i32 786445, metadata !75, metadata !"_M_iword", metadata !5, i32 503, i64 64, i64 64, i64 64, i32 0, metadata !64} ; [ DW_TAG_member ] [_M_iword] [line 503, size 64, align 64, offset 64] [from long int]
!80 = metadata !{i32 786478, i32 0, metadata !75, metadata !"_Words", metadata !"_Words", metadata !"", metadata !5, i32 504, metadata !81, i1 false, i1 false, i32 0, i32 0, null, i32 256, i1 true, null, null, i32 0, metadata !84, i32 504} ; [ DW_TAG_subprogram ] [line 504] [_Words]
!81 = metadata !{i32 786453, i32 0, metadata !"", i32 0, i32 0, i64 0, i64 0, i64 0, i32 0, null, metadata !82, i32 0, i32 0} ; [ DW_TAG_subroutine_type ] [line 0, size 0, align 0, offset 0] [from ]
!82 = metadata !{null, metadata !83}
!83 = metadata !{i32 786447, i32 0, metadata !"", i32 0, i32 0, i64 64, i64 64, i64 0, i32 1088, metadata !75} ; [ DW_TAG_pointer_type ] [line 0, size 64, align 64, offset 0] [from _Words]
!84 = metadata !{metadata !85}
!85 = metadata !{i32 786468}                      ; [ DW_TAG_base_type ] [line 0, size 0, align 0, offset 0]
!86 = metadata !{i32 786445, metadata !49, metadata !"_M_local_word", metadata !5, i32 513, i64 1024, i64 64, i64 512, i32 2, metadata !87} ; [ DW_TAG_member ] [_M_local_word] [line 513, size 1024, align 64, offset 512] [protected] [from ]
!87 = metadata !{i32 786433, null, metadata !"", null, i32 0, i64 1024, i64 64, i32 0, i32 0, metadata !75, metadata !88, i32 0, i32 0} ; [ DW_TAG_array_type ] [line 0, size 1024, align 64, offset 0] [from _Words]
!88 = metadata !{metadata !89}
!89 = metadata !{i32 786465, i64 0, i64 7}        ; [ DW_TAG_subrange_type ] [0, 7]
!90 = metadata !{i32 786445, metadata !49, metadata !"_M_word_size", metadata !5, i32 516, i64 32, i64 32, i64 1536, i32 2, metadata !56} ; [ DW_TAG_member ] [_M_word_size] [line 516, size 32, align 32, offset 1536] [protected] [from int]
!91 = metadata !{i32 786445, metadata !49, metadata !"_M_word", metadata !5, i32 517, i64 64, i64 64, i64 1600, i32 2, metadata !92} ; [ DW_TAG_member ] [_M_word] [line 517, size 64, align 64, offset 1600] [protected] [from ]
!92 = metadata !{i32 786447, null, metadata !"", null, i32 0, i64 64, i64 64, i64 0, i32 0, metadata !75} ; [ DW_TAG_pointer_type ] [line 0, size 64, align 64, offset 0] [from _Words]
!93 = metadata !{i32 786445, metadata !49, metadata !"_M_ios_locale", metadata !5, i32 523, i64 64, i64 64, i64 1664, i32 2, metadata !94} ; [ DW_TAG_member ] [_M_ios_locale] [line 523, size 64, align 64, offset 1664] [protected] [from locale]
!94 = metadata !{i32 786434, metadata !95, metadata !"locale", metadata !96, i32 63, i64 64, i64 64, i32 0, i32 0, null, metadata !97, i32 0, null, null} ; [ DW_TAG_class_type ] [locale] [line 63, size 64, align 64, offset 0] [from ]
!95 = metadata !{i32 786489, null, metadata !"std", metadata !96, i32 44} ; [ DW_TAG_namespace ] [/home/asit/AC-workdir/AxC-SVN-SHARED-REPO/axc/workloads/bodytrack-PARSEC/src/TrackingBenchmark//usr/lib/gcc/x86_64-redhat-linux/4.6.3/../../../../include/c++/4.6.3/bits/locale_classes.h]
!96 = metadata !{i32 786473, metadata !"/usr/lib/gcc/x86_64-redhat-linux/4.6.3/../../../../include/c++/4.6.3/bits/locale_classes.h", metadata !"/home/asit/AC-workdir/AxC-SVN-SHARED-REPO/axc/workloads/bodytrack-PARSEC/src/TrackingBenchmark", null} ; [ DW_TAG_file_type ]
!97 = metadata !{metadata !98, metadata !319, metadata !325, metadata !332, metadata !337, metadata !342, metadata !347, metadata !350, metadata !355, metadata !1132, metadata !1137, metadata !1140, metadata !1145, metadata !1150, metadata !1155, metadata !1158, metadata !1161, metadata !1166, metadata !1169, metadata !1170}
!98 = metadata !{i32 786445, metadata !94, metadata !"_M_impl", metadata !96, i32 280, i64 64, i64 64, i64 0, i32 1, metadata !99} ; [ DW_TAG_member ] [_M_impl] [line 280, size 64, align 64, offset 0] [private] [from ]
!99 = metadata !{i32 786447, null, metadata !"", null, i32 0, i64 64, i64 64, i64 0, i32 0, metadata !100} ; [ DW_TAG_pointer_type ] [line 0, size 64, align 64, offset 0] [from _Impl]
!100 = metadata !{i32 786434, metadata !94, metadata !"_Impl", metadata !96, i32 475, i64 320, i64 64, i32 0, i32 0, null, metadata !101, i32 0, null, null} ; [ DW_TAG_class_type ] [_Impl] [line 475, size 320, align 64, offset 0] [from ]
!101 = metadata !{metadata !102, metadata !104, metadata !212, metadata !213, metadata !214, metadata !217, metadata !223, metadata !226, metadata !233, metadata !238, metadata !243, metadata !246, metadata !251, metadata !254, metadata !260, metadata !267, metadata !302, metadata !307, metadata !312, metadata !317, metadata !318}
!102 = metadata !{i32 786445, metadata !100, metadata !"_M_refcount", metadata !96, i32 495, i64 32, i64 32, i64 0, i32 1, metadata !103} ; [ DW_TAG_member ] [_M_refcount] [line 495, size 32, align 32, offset 0] [private] [from _Atomic_word]
!103 = metadata !{i32 786454, null, metadata !"_Atomic_word", metadata !96, i32 32, i64 0, i64 0, i64 0, i32 0, metadata !56} ; [ DW_TAG_typedef ] [_Atomic_word] [line 32, size 0, align 0, offset 0] [from int]
!104 = metadata !{i32 786445, metadata !100, metadata !"_M_facets", metadata !96, i32 496, i64 64, i64 64, i64 64, i32 1, metadata !105} ; [ DW_TAG_member ] [_M_facets] [line 496, size 64, align 64, offset 64] [private] [from ]
!105 = metadata !{i32 786447, null, metadata !"", null, i32 0, i64 64, i64 64, i64 0, i32 0, metadata !106} ; [ DW_TAG_pointer_type ] [line 0, size 64, align 64, offset 0] [from ]
!106 = metadata !{i32 786447, null, metadata !"", null, i32 0, i64 64, i64 64, i64 0, i32 0, metadata !107} ; [ DW_TAG_pointer_type ] [line 0, size 64, align 64, offset 0] [from ]
!107 = metadata !{i32 786470, null, metadata !"", null, i32 0, i64 0, i64 0, i64 0, i32 0, metadata !108} ; [ DW_TAG_const_type ] [line 0, size 0, align 0, offset 0] [from facet]
!108 = metadata !{i32 786434, metadata !94, metadata !"facet", metadata !96, i32 338, i64 128, i64 64, i32 0, i32 0, null, metadata !109, i32 0, metadata !108, null} ; [ DW_TAG_class_type ] [facet] [line 338, size 128, align 64, offset 0] [from ]
!109 = metadata !{metadata !110, metadata !111, metadata !112, metadata !117, metadata !126, metadata !131, metadata !164, metadata !169, metadata !174, metadata !179, metadata !184, metadata !189, metadata !195, metadata !198, metadata !204, metadata !210, metadata !211}
!110 = metadata !{i32 786445, metadata !96, metadata !"_vptr$facet", metadata !96, i32 0, i64 64, i64 0, i64 0, i32 0, metadata !52} ; [ DW_TAG_member ] [_vptr$facet] [line 0, size 64, align 0, offset 0] [from ]
!111 = metadata !{i32 786445, metadata !108, metadata !"_M_refcount", metadata !96, i32 344, i64 32, i64 32, i64 64, i32 1, metadata !103} ; [ DW_TAG_member ] [_M_refcount] [line 344, size 32, align 32, offset 64] [private] [from _Atomic_word]
!112 = metadata !{i32 786478, i32 0, metadata !108, metadata !"_S_initialize_once", metadata !"_S_initialize_once", metadata !"_ZNSt6locale5facet18_S_initialize_onceEv", metadata !96, i32 357, metadata !113, i1 false, i1 false, i32 0, i32 0, null, i32 257, i1 true, null, null, i32 0, metadata !115, i32 357} ; [ DW_TAG_subprogram ] [line 357] [_S_initialize_once]
!113 = metadata !{i32 786453, i32 0, metadata !"", i32 0, i32 0, i64 0, i64 0, i64 0, i32 0, null, metadata !114, i32 0, i32 0} ; [ DW_TAG_subroutine_type ] [line 0, size 0, align 0, offset 0] [from ]
!114 = metadata !{null}
!115 = metadata !{metadata !116}
!116 = metadata !{i32 786468}                     ; [ DW_TAG_base_type ] [line 0, size 0, align 0, offset 0]
!117 = metadata !{i32 786478, i32 0, metadata !108, metadata !"facet", metadata !"facet", metadata !"", metadata !96, i32 370, metadata !118, i1 false, i1 false, i32 0, i32 0, null, i32 386, i1 true, null, null, i32 0, metadata !124, i32 370} ; [ DW_TAG_subprogram ] [line 370] [facet]
!118 = metadata !{i32 786453, i32 0, metadata !"", i32 0, i32 0, i64 0, i64 0, i64 0, i32 0, null, metadata !119, i32 0, i32 0} ; [ DW_TAG_subroutine_type ] [line 0, size 0, align 0, offset 0] [from ]
!119 = metadata !{null, metadata !120, metadata !121}
!120 = metadata !{i32 786447, i32 0, metadata !"", i32 0, i32 0, i64 64, i64 64, i64 0, i32 1088, metadata !108} ; [ DW_TAG_pointer_type ] [line 0, size 64, align 64, offset 0] [from facet]
!121 = metadata !{i32 786454, metadata !62, metadata !"size_t", metadata !122, i32 1737, i64 0, i64 0, i64 0, i32 0, metadata !123} ; [ DW_TAG_typedef ] [size_t] [line 1737, size 0, align 0, offset 0] [from long unsigned int]
!122 = metadata !{i32 786473, metadata !"/usr/lib/gcc/x86_64-redhat-linux/4.6.3/../../../../include/c++/4.6.3/bits/basic_string.h", metadata !"/home/asit/AC-workdir/AxC-SVN-SHARED-REPO/axc/workloads/bodytrack-PARSEC/src/TrackingBenchmark", null} ; [ DW_TAG_file_type ]
!123 = metadata !{i32 786468, null, metadata !"long unsigned int", null, i32 0, i64 64, i64 64, i64 0, i32 0, i32 7} ; [ DW_TAG_base_type ] [long unsigned int] [line 0, size 64, align 64, offset 0, enc DW_ATE_unsigned]
!124 = metadata !{metadata !125}
!125 = metadata !{i32 786468}                     ; [ DW_TAG_base_type ] [line 0, size 0, align 0, offset 0]
!126 = metadata !{i32 786478, i32 0, metadata !108, metadata !"~facet", metadata !"~facet", metadata !"", metadata !96, i32 375, metadata !127, i1 false, i1 false, i32 1, i32 0, metadata !108, i32 258, i1 true, null, null, i32 0, metadata !129, i32 375} ; [ DW_TAG_subprogram ] [line 375] [~facet]
!127 = metadata !{i32 786453, i32 0, metadata !"", i32 0, i32 0, i64 0, i64 0, i64 0, i32 0, null, metadata !128, i32 0, i32 0} ; [ DW_TAG_subroutine_type ] [line 0, size 0, align 0, offset 0] [from ]
!128 = metadata !{null, metadata !120}
!129 = metadata !{metadata !130}
!130 = metadata !{i32 786468}                     ; [ DW_TAG_base_type ] [line 0, size 0, align 0, offset 0]
!131 = metadata !{i32 786478, i32 0, metadata !108, metadata !"_S_create_c_locale", metadata !"_S_create_c_locale", metadata !"_ZNSt6locale5facet18_S_create_c_localeERP15__locale_structPKcS2_", metadata !96, i32 378, metadata !132, i1 false, i1 false, i32 0, i32 0, null, i32 258, i1 true, null, null, i32 0, metadata !162, i32 378} ; [ DW_TAG_subprogram ] [line 378] [_S_create_c_locale]
!132 = metadata !{i32 786453, i32 0, metadata !"", i32 0, i32 0, i64 0, i64 0, i64 0, i32 0, null, metadata !133, i32 0, i32 0} ; [ DW_TAG_subroutine_type ] [line 0, size 0, align 0, offset 0] [from ]
!133 = metadata !{null, metadata !134, metadata !159, metadata !135}
!134 = metadata !{i32 786448, null, null, null, i32 0, i64 0, i64 0, i64 0, i32 0, metadata !135} ; [ DW_TAG_reference_type ] [line 0, size 0, align 0, offset 0] [from __c_locale]
!135 = metadata !{i32 786454, metadata !136, metadata !"__c_locale", metadata !96, i32 62, i64 0, i64 0, i64 0, i32 0, metadata !138} ; [ DW_TAG_typedef ] [__c_locale] [line 62, size 0, align 0, offset 0] [from __locale_t]
!136 = metadata !{i32 786489, null, metadata !"std", metadata !137, i32 58} ; [ DW_TAG_namespace ] [/home/asit/AC-workdir/AxC-SVN-SHARED-REPO/axc/workloads/bodytrack-PARSEC/src/TrackingBenchmark//usr/lib/gcc/x86_64-redhat-linux/4.6.3/../../../../include/c++/4.6.3/x86_64-redhat-linux/bits/c++locale.h]
!137 = metadata !{i32 786473, metadata !"/usr/lib/gcc/x86_64-redhat-linux/4.6.3/../../../../include/c++/4.6.3/x86_64-redhat-linux/bits/c++locale.h", metadata !"/home/asit/AC-workdir/AxC-SVN-SHARED-REPO/axc/workloads/bodytrack-PARSEC/src/TrackingBenchmark", null} ; [ DW_TAG_file_type ]
!138 = metadata !{i32 786454, null, metadata !"__locale_t", metadata !96, i32 40, i64 0, i64 0, i64 0, i32 0, metadata !139} ; [ DW_TAG_typedef ] [__locale_t] [line 40, size 0, align 0, offset 0] [from ]
!139 = metadata !{i32 786447, null, metadata !"", null, i32 0, i64 64, i64 64, i64 0, i32 0, metadata !140} ; [ DW_TAG_pointer_type ] [line 0, size 64, align 64, offset 0] [from __locale_struct]
!140 = metadata !{i32 786451, null, metadata !"__locale_struct", metadata !141, i32 28, i64 1856, i64 64, i32 0, i32 0, null, metadata !142, i32 0, null, null} ; [ DW_TAG_structure_type ] [__locale_struct] [line 28, size 1856, align 64, offset 0] [from ]
!141 = metadata !{i32 786473, metadata !"/usr/include/xlocale.h", metadata !"/home/asit/AC-workdir/AxC-SVN-SHARED-REPO/axc/workloads/bodytrack-PARSEC/src/TrackingBenchmark", null} ; [ DW_TAG_file_type ]
!142 = metadata !{metadata !143, metadata !149, metadata !153, metadata !156, metadata !157}
!143 = metadata !{i32 786445, metadata !140, metadata !"__locales", metadata !141, i32 31, i64 832, i64 64, i64 0, i32 0, metadata !144} ; [ DW_TAG_member ] [__locales] [line 31, size 832, align 64, offset 0] [from ]
!144 = metadata !{i32 786433, null, metadata !"", null, i32 0, i64 832, i64 64, i32 0, i32 0, metadata !145, metadata !147, i32 0, i32 0} ; [ DW_TAG_array_type ] [line 0, size 832, align 64, offset 0] [from ]
!145 = metadata !{i32 786447, null, metadata !"", null, i32 0, i64 64, i64 64, i64 0, i32 0, metadata !146} ; [ DW_TAG_pointer_type ] [line 0, size 64, align 64, offset 0] [from __locale_data]
!146 = metadata !{i32 786451, null, metadata !"__locale_data", metadata !141, i32 31, i64 0, i64 0, i32 0, i32 4, null, null, i32 0} ; [ DW_TAG_structure_type ] [__locale_data] [line 31, size 0, align 0, offset 0] [fwd] [from ]
!147 = metadata !{metadata !148}
!148 = metadata !{i32 786465, i64 0, i64 12}      ; [ DW_TAG_subrange_type ] [0, 12]
!149 = metadata !{i32 786445, metadata !140, metadata !"__ctype_b", metadata !141, i32 34, i64 64, i64 64, i64 832, i32 0, metadata !150} ; [ DW_TAG_member ] [__ctype_b] [line 34, size 64, align 64, offset 832] [from ]
!150 = metadata !{i32 786447, null, metadata !"", null, i32 0, i64 64, i64 64, i64 0, i32 0, metadata !151} ; [ DW_TAG_pointer_type ] [line 0, size 64, align 64, offset 0] [from ]
!151 = metadata !{i32 786470, null, metadata !"", null, i32 0, i64 0, i64 0, i64 0, i32 0, metadata !152} ; [ DW_TAG_const_type ] [line 0, size 0, align 0, offset 0] [from unsigned short]
!152 = metadata !{i32 786468, null, metadata !"unsigned short", null, i32 0, i64 16, i64 16, i64 0, i32 0, i32 7} ; [ DW_TAG_base_type ] [unsigned short] [line 0, size 16, align 16, offset 0, enc DW_ATE_unsigned]
!153 = metadata !{i32 786445, metadata !140, metadata !"__ctype_tolower", metadata !141, i32 35, i64 64, i64 64, i64 896, i32 0, metadata !154} ; [ DW_TAG_member ] [__ctype_tolower] [line 35, size 64, align 64, offset 896] [from ]
!154 = metadata !{i32 786447, null, metadata !"", null, i32 0, i64 64, i64 64, i64 0, i32 0, metadata !155} ; [ DW_TAG_pointer_type ] [line 0, size 64, align 64, offset 0] [from ]
!155 = metadata !{i32 786470, null, metadata !"", null, i32 0, i64 0, i64 0, i64 0, i32 0, metadata !56} ; [ DW_TAG_const_type ] [line 0, size 0, align 0, offset 0] [from int]
!156 = metadata !{i32 786445, metadata !140, metadata !"__ctype_toupper", metadata !141, i32 36, i64 64, i64 64, i64 960, i32 0, metadata !154} ; [ DW_TAG_member ] [__ctype_toupper] [line 36, size 64, align 64, offset 960] [from ]
!157 = metadata !{i32 786445, metadata !140, metadata !"__names", metadata !141, i32 39, i64 832, i64 64, i64 1024, i32 0, metadata !158} ; [ DW_TAG_member ] [__names] [line 39, size 832, align 64, offset 1024] [from ]
!158 = metadata !{i32 786433, null, metadata !"", null, i32 0, i64 832, i64 64, i32 0, i32 0, metadata !159, metadata !147, i32 0, i32 0} ; [ DW_TAG_array_type ] [line 0, size 832, align 64, offset 0] [from ]
!159 = metadata !{i32 786447, null, metadata !"", null, i32 0, i64 64, i64 64, i64 0, i32 0, metadata !160} ; [ DW_TAG_pointer_type ] [line 0, size 64, align 64, offset 0] [from ]
!160 = metadata !{i32 786470, null, metadata !"", null, i32 0, i64 0, i64 0, i64 0, i32 0, metadata !161} ; [ DW_TAG_const_type ] [line 0, size 0, align 0, offset 0] [from char]
!161 = metadata !{i32 786468, null, metadata !"char", null, i32 0, i64 8, i64 8, i64 0, i32 0, i32 6} ; [ DW_TAG_base_type ] [char] [line 0, size 8, align 8, offset 0, enc DW_ATE_signed_char]
!162 = metadata !{metadata !163}
!163 = metadata !{i32 786468}                     ; [ DW_TAG_base_type ] [line 0, size 0, align 0, offset 0]
!164 = metadata !{i32 786478, i32 0, metadata !108, metadata !"_S_clone_c_locale", metadata !"_S_clone_c_locale", metadata !"_ZNSt6locale5facet17_S_clone_c_localeERP15__locale_struct", metadata !96, i32 382, metadata !165, i1 false, i1 false, i32 0, i32 0, null, i32 258, i1 true, null, null, i32 0, metadata !167, i32 382} ; [ DW_TAG_subprogram ] [line 382] [_S_clone_c_locale]
!165 = metadata !{i32 786453, i32 0, metadata !"", i32 0, i32 0, i64 0, i64 0, i64 0, i32 0, null, metadata !166, i32 0, i32 0} ; [ DW_TAG_subroutine_type ] [line 0, size 0, align 0, offset 0] [from ]
!166 = metadata !{metadata !135, metadata !134}
!167 = metadata !{metadata !168}
!168 = metadata !{i32 786468}                     ; [ DW_TAG_base_type ] [line 0, size 0, align 0, offset 0]
!169 = metadata !{i32 786478, i32 0, metadata !108, metadata !"_S_destroy_c_locale", metadata !"_S_destroy_c_locale", metadata !"_ZNSt6locale5facet19_S_destroy_c_localeERP15__locale_struct", metadata !96, i32 385, metadata !170, i1 false, i1 false, i32 0, i32 0, null, i32 258, i1 true, null, null, i32 0, metadata !172, i32 385} ; [ DW_TAG_subprogram ] [line 385] [_S_destroy_c_locale]
!170 = metadata !{i32 786453, i32 0, metadata !"", i32 0, i32 0, i64 0, i64 0, i64 0, i32 0, null, metadata !171, i32 0, i32 0} ; [ DW_TAG_subroutine_type ] [line 0, size 0, align 0, offset 0] [from ]
!171 = metadata !{null, metadata !134}
!172 = metadata !{metadata !173}
!173 = metadata !{i32 786468}                     ; [ DW_TAG_base_type ] [line 0, size 0, align 0, offset 0]
!174 = metadata !{i32 786478, i32 0, metadata !108, metadata !"_S_lc_ctype_c_locale", metadata !"_S_lc_ctype_c_locale", metadata !"_ZNSt6locale5facet20_S_lc_ctype_c_localeEP15__locale_structPKc", metadata !96, i32 388, metadata !175, i1 false, i1 false, i32 0, i32 0, null, i32 258, i1 true, null, null, i32 0, metadata !177, i32 388} ; [ DW_TAG_subprogram ] [line 388] [_S_lc_ctype_c_locale]
!175 = metadata !{i32 786453, i32 0, metadata !"", i32 0, i32 0, i64 0, i64 0, i64 0, i32 0, null, metadata !176, i32 0, i32 0} ; [ DW_TAG_subroutine_type ] [line 0, size 0, align 0, offset 0] [from ]
!176 = metadata !{metadata !135, metadata !135, metadata !159}
!177 = metadata !{metadata !178}
!178 = metadata !{i32 786468}                     ; [ DW_TAG_base_type ] [line 0, size 0, align 0, offset 0]
!179 = metadata !{i32 786478, i32 0, metadata !108, metadata !"_S_get_c_locale", metadata !"_S_get_c_locale", metadata !"_ZNSt6locale5facet15_S_get_c_localeEv", metadata !96, i32 393, metadata !180, i1 false, i1 false, i32 0, i32 0, null, i32 258, i1 true, null, null, i32 0, metadata !182, i32 393} ; [ DW_TAG_subprogram ] [line 393] [_S_get_c_locale]
!180 = metadata !{i32 786453, i32 0, metadata !"", i32 0, i32 0, i64 0, i64 0, i64 0, i32 0, null, metadata !181, i32 0, i32 0} ; [ DW_TAG_subroutine_type ] [line 0, size 0, align 0, offset 0] [from ]
!181 = metadata !{metadata !135}
!182 = metadata !{metadata !183}
!183 = metadata !{i32 786468}                     ; [ DW_TAG_base_type ] [line 0, size 0, align 0, offset 0]
!184 = metadata !{i32 786478, i32 0, metadata !108, metadata !"_S_get_c_name", metadata !"_S_get_c_name", metadata !"_ZNSt6locale5facet13_S_get_c_nameEv", metadata !96, i32 396, metadata !185, i1 false, i1 false, i32 0, i32 0, null, i32 258, i1 true, null, null, i32 0, metadata !187, i32 396} ; [ DW_TAG_subprogram ] [line 396] [_S_get_c_name]
!185 = metadata !{i32 786453, i32 0, metadata !"", i32 0, i32 0, i64 0, i64 0, i64 0, i32 0, null, metadata !186, i32 0, i32 0} ; [ DW_TAG_subroutine_type ] [line 0, size 0, align 0, offset 0] [from ]
!186 = metadata !{metadata !159}
!187 = metadata !{metadata !188}
!188 = metadata !{i32 786468}                     ; [ DW_TAG_base_type ] [line 0, size 0, align 0, offset 0]
!189 = metadata !{i32 786478, i32 0, metadata !108, metadata !"_M_add_reference", metadata !"_M_add_reference", metadata !"_ZNKSt6locale5facet16_M_add_referenceEv", metadata !96, i32 400, metadata !190, i1 false, i1 false, i32 0, i32 0, null, i32 257, i1 true, null, null, i32 0, metadata !193, i32 400} ; [ DW_TAG_subprogram ] [line 400] [_M_add_reference]
!190 = metadata !{i32 786453, i32 0, metadata !"", i32 0, i32 0, i64 0, i64 0, i64 0, i32 0, null, metadata !191, i32 0, i32 0} ; [ DW_TAG_subroutine_type ] [line 0, size 0, align 0, offset 0] [from ]
!191 = metadata !{null, metadata !192}
!192 = metadata !{i32 786447, i32 0, metadata !"", i32 0, i32 0, i64 64, i64 64, i64 0, i32 1088, metadata !107} ; [ DW_TAG_pointer_type ] [line 0, size 64, align 64, offset 0] [from ]
!193 = metadata !{metadata !194}
!194 = metadata !{i32 786468}                     ; [ DW_TAG_base_type ] [line 0, size 0, align 0, offset 0]
!195 = metadata !{i32 786478, i32 0, metadata !108, metadata !"_M_remove_reference", metadata !"_M_remove_reference", metadata !"_ZNKSt6locale5facet19_M_remove_referenceEv", metadata !96, i32 404, metadata !190, i1 false, i1 false, i32 0, i32 0, null, i32 257, i1 true, null, null, i32 0, metadata !196, i32 404} ; [ DW_TAG_subprogram ] [line 404] [_M_remove_reference]
!196 = metadata !{metadata !197}
!197 = metadata !{i32 786468}                     ; [ DW_TAG_base_type ] [line 0, size 0, align 0, offset 0]
!198 = metadata !{i32 786478, i32 0, metadata !108, metadata !"facet", metadata !"facet", metadata !"", metadata !96, i32 418, metadata !199, i1 false, i1 false, i32 0, i32 0, null, i32 257, i1 true, null, null, i32 0, metadata !202, i32 418} ; [ DW_TAG_subprogram ] [line 418] [facet]
!199 = metadata !{i32 786453, i32 0, metadata !"", i32 0, i32 0, i64 0, i64 0, i64 0, i32 0, null, metadata !200, i32 0, i32 0} ; [ DW_TAG_subroutine_type ] [line 0, size 0, align 0, offset 0] [from ]
!200 = metadata !{null, metadata !120, metadata !201}
!201 = metadata !{i32 786448, null, null, null, i32 0, i64 0, i64 0, i64 0, i32 0, metadata !107} ; [ DW_TAG_reference_type ] [line 0, size 0, align 0, offset 0] [from ]
!202 = metadata !{metadata !203}
!203 = metadata !{i32 786468}                     ; [ DW_TAG_base_type ] [line 0, size 0, align 0, offset 0]
!204 = metadata !{i32 786478, i32 0, metadata !108, metadata !"operator=", metadata !"operator=", metadata !"_ZNSt6locale5facetaSERKS0_", metadata !96, i32 421, metadata !205, i1 false, i1 false, i32 0, i32 0, null, i32 257, i1 true, null, null, i32 0, metadata !208, i32 421} ; [ DW_TAG_subprogram ] [line 421] [operator=]
!205 = metadata !{i32 786453, i32 0, metadata !"", i32 0, i32 0, i64 0, i64 0, i64 0, i32 0, null, metadata !206, i32 0, i32 0} ; [ DW_TAG_subroutine_type ] [line 0, size 0, align 0, offset 0] [from ]
!206 = metadata !{metadata !207, metadata !120, metadata !201}
!207 = metadata !{i32 786448, null, null, null, i32 0, i64 0, i64 0, i64 0, i32 0, metadata !108} ; [ DW_TAG_reference_type ] [line 0, size 0, align 0, offset 0] [from facet]
!208 = metadata !{metadata !209}
!209 = metadata !{i32 786468}                     ; [ DW_TAG_base_type ] [line 0, size 0, align 0, offset 0]
!210 = metadata !{i32 786474, metadata !108, null, metadata !96, i32 0, i64 0, i64 0, i64 0, i32 0, metadata !100} ; [ DW_TAG_friend ] [line 0, size 0, align 0, offset 0] [from _Impl]
!211 = metadata !{i32 786474, metadata !108, null, metadata !96, i32 0, i64 0, i64 0, i64 0, i32 0, metadata !94} ; [ DW_TAG_friend ] [line 0, size 0, align 0, offset 0] [from locale]
!212 = metadata !{i32 786445, metadata !100, metadata !"_M_facets_size", metadata !96, i32 497, i64 64, i64 64, i64 128, i32 1, metadata !121} ; [ DW_TAG_member ] [_M_facets_size] [line 497, size 64, align 64, offset 128] [private] [from size_t]
!213 = metadata !{i32 786445, metadata !100, metadata !"_M_caches", metadata !96, i32 498, i64 64, i64 64, i64 192, i32 1, metadata !105} ; [ DW_TAG_member ] [_M_caches] [line 498, size 64, align 64, offset 192] [private] [from ]
!214 = metadata !{i32 786445, metadata !100, metadata !"_M_names", metadata !96, i32 499, i64 64, i64 64, i64 256, i32 1, metadata !215} ; [ DW_TAG_member ] [_M_names] [line 499, size 64, align 64, offset 256] [private] [from ]
!215 = metadata !{i32 786447, null, metadata !"", null, i32 0, i64 64, i64 64, i64 0, i32 0, metadata !216} ; [ DW_TAG_pointer_type ] [line 0, size 64, align 64, offset 0] [from ]
!216 = metadata !{i32 786447, null, metadata !"", null, i32 0, i64 64, i64 64, i64 0, i32 0, metadata !161} ; [ DW_TAG_pointer_type ] [line 0, size 64, align 64, offset 0] [from char]
!217 = metadata !{i32 786478, i32 0, metadata !100, metadata !"_M_add_reference", metadata !"_M_add_reference", metadata !"_ZNSt6locale5_Impl16_M_add_referenceEv", metadata !96, i32 509, metadata !218, i1 false, i1 false, i32 0, i32 0, null, i32 257, i1 true, null, null, i32 0, metadata !221, i32 509} ; [ DW_TAG_subprogram ] [line 509] [_M_add_reference]
!218 = metadata !{i32 786453, i32 0, metadata !"", i32 0, i32 0, i64 0, i64 0, i64 0, i32 0, null, metadata !219, i32 0, i32 0} ; [ DW_TAG_subroutine_type ] [line 0, size 0, align 0, offset 0] [from ]
!219 = metadata !{null, metadata !220}
!220 = metadata !{i32 786447, i32 0, metadata !"", i32 0, i32 0, i64 64, i64 64, i64 0, i32 1088, metadata !100} ; [ DW_TAG_pointer_type ] [line 0, size 64, align 64, offset 0] [from _Impl]
!221 = metadata !{metadata !222}
!222 = metadata !{i32 786468}                     ; [ DW_TAG_base_type ] [line 0, size 0, align 0, offset 0]
!223 = metadata !{i32 786478, i32 0, metadata !100, metadata !"_M_remove_reference", metadata !"_M_remove_reference", metadata !"_ZNSt6locale5_Impl19_M_remove_referenceEv", metadata !96, i32 513, metadata !218, i1 false, i1 false, i32 0, i32 0, null, i32 257, i1 true, null, null, i32 0, metadata !224, i32 513} ; [ DW_TAG_subprogram ] [line 513] [_M_remove_reference]
!224 = metadata !{metadata !225}
!225 = metadata !{i32 786468}                     ; [ DW_TAG_base_type ] [line 0, size 0, align 0, offset 0]
!226 = metadata !{i32 786478, i32 0, metadata !100, metadata !"_Impl", metadata !"_Impl", metadata !"", metadata !96, i32 527, metadata !227, i1 false, i1 false, i32 0, i32 0, null, i32 257, i1 true, null, null, i32 0, metadata !231, i32 527} ; [ DW_TAG_subprogram ] [line 527] [_Impl]
!227 = metadata !{i32 786453, i32 0, metadata !"", i32 0, i32 0, i64 0, i64 0, i64 0, i32 0, null, metadata !228, i32 0, i32 0} ; [ DW_TAG_subroutine_type ] [line 0, size 0, align 0, offset 0] [from ]
!228 = metadata !{null, metadata !220, metadata !229, metadata !121}
!229 = metadata !{i32 786448, null, null, null, i32 0, i64 0, i64 0, i64 0, i32 0, metadata !230} ; [ DW_TAG_reference_type ] [line 0, size 0, align 0, offset 0] [from ]
!230 = metadata !{i32 786470, null, metadata !"", null, i32 0, i64 0, i64 0, i64 0, i32 0, metadata !100} ; [ DW_TAG_const_type ] [line 0, size 0, align 0, offset 0] [from _Impl]
!231 = metadata !{metadata !232}
!232 = metadata !{i32 786468}                     ; [ DW_TAG_base_type ] [line 0, size 0, align 0, offset 0]
!233 = metadata !{i32 786478, i32 0, metadata !100, metadata !"_Impl", metadata !"_Impl", metadata !"", metadata !96, i32 528, metadata !234, i1 false, i1 false, i32 0, i32 0, null, i32 257, i1 true, null, null, i32 0, metadata !236, i32 528} ; [ DW_TAG_subprogram ] [line 528] [_Impl]
!234 = metadata !{i32 786453, i32 0, metadata !"", i32 0, i32 0, i64 0, i64 0, i64 0, i32 0, null, metadata !235, i32 0, i32 0} ; [ DW_TAG_subroutine_type ] [line 0, size 0, align 0, offset 0] [from ]
!235 = metadata !{null, metadata !220, metadata !159, metadata !121}
!236 = metadata !{metadata !237}
!237 = metadata !{i32 786468}                     ; [ DW_TAG_base_type ] [line 0, size 0, align 0, offset 0]
!238 = metadata !{i32 786478, i32 0, metadata !100, metadata !"_Impl", metadata !"_Impl", metadata !"", metadata !96, i32 529, metadata !239, i1 false, i1 false, i32 0, i32 0, null, i32 257, i1 true, null, null, i32 0, metadata !241, i32 529} ; [ DW_TAG_subprogram ] [line 529] [_Impl]
!239 = metadata !{i32 786453, i32 0, metadata !"", i32 0, i32 0, i64 0, i64 0, i64 0, i32 0, null, metadata !240, i32 0, i32 0} ; [ DW_TAG_subroutine_type ] [line 0, size 0, align 0, offset 0] [from ]
!240 = metadata !{null, metadata !220, metadata !121}
!241 = metadata !{metadata !242}
!242 = metadata !{i32 786468}                     ; [ DW_TAG_base_type ] [line 0, size 0, align 0, offset 0]
!243 = metadata !{i32 786478, i32 0, metadata !100, metadata !"~_Impl", metadata !"~_Impl", metadata !"", metadata !96, i32 531, metadata !218, i1 false, i1 false, i32 0, i32 0, null, i32 257, i1 true, null, null, i32 0, metadata !244, i32 531} ; [ DW_TAG_subprogram ] [line 531] [~_Impl]
!244 = metadata !{metadata !245}
!245 = metadata !{i32 786468}                     ; [ DW_TAG_base_type ] [line 0, size 0, align 0, offset 0]
!246 = metadata !{i32 786478, i32 0, metadata !100, metadata !"_Impl", metadata !"_Impl", metadata !"", metadata !96, i32 533, metadata !247, i1 false, i1 false, i32 0, i32 0, null, i32 257, i1 true, null, null, i32 0, metadata !249, i32 533} ; [ DW_TAG_subprogram ] [line 533] [_Impl]
!247 = metadata !{i32 786453, i32 0, metadata !"", i32 0, i32 0, i64 0, i64 0, i64 0, i32 0, null, metadata !248, i32 0, i32 0} ; [ DW_TAG_subroutine_type ] [line 0, size 0, align 0, offset 0] [from ]
!248 = metadata !{null, metadata !220, metadata !229}
!249 = metadata !{metadata !250}
!250 = metadata !{i32 786468}                     ; [ DW_TAG_base_type ] [line 0, size 0, align 0, offset 0]
!251 = metadata !{i32 786478, i32 0, metadata !100, metadata !"operator=", metadata !"operator=", metadata !"_ZNSt6locale5_ImplaSERKS0_", metadata !96, i32 536, metadata !247, i1 false, i1 false, i32 0, i32 0, null, i32 257, i1 true, null, null, i32 0, metadata !252, i32 536} ; [ DW_TAG_subprogram ] [line 536] [operator=]
!252 = metadata !{metadata !253}
!253 = metadata !{i32 786468}                     ; [ DW_TAG_base_type ] [line 0, size 0, align 0, offset 0]
!254 = metadata !{i32 786478, i32 0, metadata !100, metadata !"_M_check_same_name", metadata !"_M_check_same_name", metadata !"_ZNSt6locale5_Impl18_M_check_same_nameEv", metadata !96, i32 539, metadata !255, i1 false, i1 false, i32 0, i32 0, null, i32 257, i1 true, null, null, i32 0, metadata !258, i32 539} ; [ DW_TAG_subprogram ] [line 539] [_M_check_same_name]
!255 = metadata !{i32 786453, i32 0, metadata !"", i32 0, i32 0, i64 0, i64 0, i64 0, i32 0, null, metadata !256, i32 0, i32 0} ; [ DW_TAG_subroutine_type ] [line 0, size 0, align 0, offset 0] [from ]
!256 = metadata !{metadata !257, metadata !220}
!257 = metadata !{i32 786468, null, metadata !"bool", null, i32 0, i64 8, i64 8, i64 0, i32 0, i32 2} ; [ DW_TAG_base_type ] [bool] [line 0, size 8, align 8, offset 0, enc DW_ATE_boolean]
!258 = metadata !{metadata !259}
!259 = metadata !{i32 786468}                     ; [ DW_TAG_base_type ] [line 0, size 0, align 0, offset 0]
!260 = metadata !{i32 786478, i32 0, metadata !100, metadata !"_M_replace_categories", metadata !"_M_replace_categories", metadata !"_ZNSt6locale5_Impl21_M_replace_categoriesEPKS0_i", metadata !96, i32 550, metadata !261, i1 false, i1 false, i32 0, i32 0, null, i32 257, i1 true, null, null, i32 0, metadata !265, i32 550} ; [ DW_TAG_subprogram ] [line 550] [_M_replace_categories]
!261 = metadata !{i32 786453, i32 0, metadata !"", i32 0, i32 0, i64 0, i64 0, i64 0, i32 0, null, metadata !262, i32 0, i32 0} ; [ DW_TAG_subroutine_type ] [line 0, size 0, align 0, offset 0] [from ]
!262 = metadata !{null, metadata !220, metadata !263, metadata !264}
!263 = metadata !{i32 786447, null, metadata !"", null, i32 0, i64 64, i64 64, i64 0, i32 0, metadata !230} ; [ DW_TAG_pointer_type ] [line 0, size 64, align 64, offset 0] [from ]
!264 = metadata !{i32 786454, metadata !94, metadata !"category", metadata !96, i32 68, i64 0, i64 0, i64 0, i32 0, metadata !56} ; [ DW_TAG_typedef ] [category] [line 68, size 0, align 0, offset 0] [from int]
!265 = metadata !{metadata !266}
!266 = metadata !{i32 786468}                     ; [ DW_TAG_base_type ] [line 0, size 0, align 0, offset 0]
!267 = metadata !{i32 786478, i32 0, metadata !100, metadata !"_M_replace_category", metadata !"_M_replace_category", metadata !"_ZNSt6locale5_Impl19_M_replace_categoryEPKS0_PKPKNS_2idE", metadata !96, i32 553, metadata !268, i1 false, i1 false, i32 0, i32 0, null, i32 257, i1 true, null, null, i32 0, metadata !300, i32 553} ; [ DW_TAG_subprogram ] [line 553] [_M_replace_category]
!268 = metadata !{i32 786453, i32 0, metadata !"", i32 0, i32 0, i64 0, i64 0, i64 0, i32 0, null, metadata !269, i32 0, i32 0} ; [ DW_TAG_subroutine_type ] [line 0, size 0, align 0, offset 0] [from ]
!269 = metadata !{null, metadata !220, metadata !263, metadata !270}
!270 = metadata !{i32 786447, null, metadata !"", null, i32 0, i64 64, i64 64, i64 0, i32 0, metadata !271} ; [ DW_TAG_pointer_type ] [line 0, size 64, align 64, offset 0] [from ]
!271 = metadata !{i32 786470, null, metadata !"", null, i32 0, i64 0, i64 0, i64 0, i32 0, metadata !272} ; [ DW_TAG_const_type ] [line 0, size 0, align 0, offset 0] [from ]
!272 = metadata !{i32 786447, null, metadata !"", null, i32 0, i64 64, i64 64, i64 0, i32 0, metadata !273} ; [ DW_TAG_pointer_type ] [line 0, size 64, align 64, offset 0] [from ]
!273 = metadata !{i32 786470, null, metadata !"", null, i32 0, i64 0, i64 0, i64 0, i32 0, metadata !274} ; [ DW_TAG_const_type ] [line 0, size 0, align 0, offset 0] [from id]
!274 = metadata !{i32 786434, metadata !94, metadata !"id", metadata !96, i32 436, i64 64, i64 64, i32 0, i32 0, null, metadata !275, i32 0, null, null} ; [ DW_TAG_class_type ] [id] [line 436, size 64, align 64, offset 0] [from ]
!275 = metadata !{metadata !276, metadata !277, metadata !284, metadata !287, metadata !292, metadata !298, metadata !299}
!276 = metadata !{i32 786445, metadata !274, metadata !"_M_index", metadata !96, i32 453, i64 64, i64 64, i64 0, i32 1, metadata !121} ; [ DW_TAG_member ] [_M_index] [line 453, size 64, align 64, offset 0] [private] [from size_t]
!277 = metadata !{i32 786478, i32 0, metadata !274, metadata !"operator=", metadata !"operator=", metadata !"_ZNSt6locale2idaSERKS0_", metadata !96, i32 459, metadata !278, i1 false, i1 false, i32 0, i32 0, null, i32 257, i1 true, null, null, i32 0, metadata !282, i32 459} ; [ DW_TAG_subprogram ] [line 459] [operator=]
!278 = metadata !{i32 786453, i32 0, metadata !"", i32 0, i32 0, i64 0, i64 0, i64 0, i32 0, null, metadata !279, i32 0, i32 0} ; [ DW_TAG_subroutine_type ] [line 0, size 0, align 0, offset 0] [from ]
!279 = metadata !{null, metadata !280, metadata !281}
!280 = metadata !{i32 786447, i32 0, metadata !"", i32 0, i32 0, i64 64, i64 64, i64 0, i32 1088, metadata !274} ; [ DW_TAG_pointer_type ] [line 0, size 64, align 64, offset 0] [from id]
!281 = metadata !{i32 786448, null, null, null, i32 0, i64 0, i64 0, i64 0, i32 0, metadata !273} ; [ DW_TAG_reference_type ] [line 0, size 0, align 0, offset 0] [from ]
!282 = metadata !{metadata !283}
!283 = metadata !{i32 786468}                     ; [ DW_TAG_base_type ] [line 0, size 0, align 0, offset 0]
!284 = metadata !{i32 786478, i32 0, metadata !274, metadata !"id", metadata !"id", metadata !"", metadata !96, i32 461, metadata !278, i1 false, i1 false, i32 0, i32 0, null, i32 257, i1 true, null, null, i32 0, metadata !285, i32 461} ; [ DW_TAG_subprogram ] [line 461] [id]
!285 = metadata !{metadata !286}
!286 = metadata !{i32 786468}                     ; [ DW_TAG_base_type ] [line 0, size 0, align 0, offset 0]
!287 = metadata !{i32 786478, i32 0, metadata !274, metadata !"id", metadata !"id", metadata !"", metadata !96, i32 467, metadata !288, i1 false, i1 false, i32 0, i32 0, null, i32 256, i1 true, null, null, i32 0, metadata !290, i32 467} ; [ DW_TAG_subprogram ] [line 467] [id]
!288 = metadata !{i32 786453, i32 0, metadata !"", i32 0, i32 0, i64 0, i64 0, i64 0, i32 0, null, metadata !289, i32 0, i32 0} ; [ DW_TAG_subroutine_type ] [line 0, size 0, align 0, offset 0] [from ]
!289 = metadata !{null, metadata !280}
!290 = metadata !{metadata !291}
!291 = metadata !{i32 786468}                     ; [ DW_TAG_base_type ] [line 0, size 0, align 0, offset 0]
!292 = metadata !{i32 786478, i32 0, metadata !274, metadata !"_M_id", metadata !"_M_id", metadata !"_ZNKSt6locale2id5_M_idEv", metadata !96, i32 470, metadata !293, i1 false, i1 false, i32 0, i32 0, null, i32 256, i1 true, null, null, i32 0, metadata !296, i32 470} ; [ DW_TAG_subprogram ] [line 470] [_M_id]
!293 = metadata !{i32 786453, i32 0, metadata !"", i32 0, i32 0, i64 0, i64 0, i64 0, i32 0, null, metadata !294, i32 0, i32 0} ; [ DW_TAG_subroutine_type ] [line 0, size 0, align 0, offset 0] [from ]
!294 = metadata !{metadata !121, metadata !295}
!295 = metadata !{i32 786447, i32 0, metadata !"", i32 0, i32 0, i64 64, i64 64, i64 0, i32 1088, metadata !273} ; [ DW_TAG_pointer_type ] [line 0, size 64, align 64, offset 0] [from ]
!296 = metadata !{metadata !297}
!297 = metadata !{i32 786468}                     ; [ DW_TAG_base_type ] [line 0, size 0, align 0, offset 0]
!298 = metadata !{i32 786474, metadata !274, null, metadata !96, i32 0, i64 0, i64 0, i64 0, i32 0, metadata !100} ; [ DW_TAG_friend ] [line 0, size 0, align 0, offset 0] [from _Impl]
!299 = metadata !{i32 786474, metadata !274, null, metadata !96, i32 0, i64 0, i64 0, i64 0, i32 0, metadata !94} ; [ DW_TAG_friend ] [line 0, size 0, align 0, offset 0] [from locale]
!300 = metadata !{metadata !301}
!301 = metadata !{i32 786468}                     ; [ DW_TAG_base_type ] [line 0, size 0, align 0, offset 0]
!302 = metadata !{i32 786478, i32 0, metadata !100, metadata !"_M_replace_facet", metadata !"_M_replace_facet", metadata !"_ZNSt6locale5_Impl16_M_replace_facetEPKS0_PKNS_2idE", metadata !96, i32 556, metadata !303, i1 false, i1 false, i32 0, i32 0, null, i32 257, i1 true, null, null, i32 0, metadata !305, i32 556} ; [ DW_TAG_subprogram ] [line 556] [_M_replace_facet]
!303 = metadata !{i32 786453, i32 0, metadata !"", i32 0, i32 0, i64 0, i64 0, i64 0, i32 0, null, metadata !304, i32 0, i32 0} ; [ DW_TAG_subroutine_type ] [line 0, size 0, align 0, offset 0] [from ]
!304 = metadata !{null, metadata !220, metadata !263, metadata !272}
!305 = metadata !{metadata !306}
!306 = metadata !{i32 786468}                     ; [ DW_TAG_base_type ] [line 0, size 0, align 0, offset 0]
!307 = metadata !{i32 786478, i32 0, metadata !100, metadata !"_M_install_facet", metadata !"_M_install_facet", metadata !"_ZNSt6locale5_Impl16_M_install_facetEPKNS_2idEPKNS_5facetE", metadata !96, i32 559, metadata !308, i1 false, i1 false, i32 0, i32 0, null, i32 257, i1 true, null, null, i32 0, metadata !310, i32 559} ; [ DW_TAG_subprogram ] [line 559] [_M_install_facet]
!308 = metadata !{i32 786453, i32 0, metadata !"", i32 0, i32 0, i64 0, i64 0, i64 0, i32 0, null, metadata !309, i32 0, i32 0} ; [ DW_TAG_subroutine_type ] [line 0, size 0, align 0, offset 0] [from ]
!309 = metadata !{null, metadata !220, metadata !272, metadata !106}
!310 = metadata !{metadata !311}
!311 = metadata !{i32 786468}                     ; [ DW_TAG_base_type ] [line 0, size 0, align 0, offset 0]
!312 = metadata !{i32 786478, i32 0, metadata !100, metadata !"_M_install_cache", metadata !"_M_install_cache", metadata !"_ZNSt6locale5_Impl16_M_install_cacheEPKNS_5facetEm", metadata !96, i32 567, metadata !313, i1 false, i1 false, i32 0, i32 0, null, i32 257, i1 true, null, null, i32 0, metadata !315, i32 567} ; [ DW_TAG_subprogram ] [line 567] [_M_install_cache]
!313 = metadata !{i32 786453, i32 0, metadata !"", i32 0, i32 0, i64 0, i64 0, i64 0, i32 0, null, metadata !314, i32 0, i32 0} ; [ DW_TAG_subroutine_type ] [line 0, size 0, align 0, offset 0] [from ]
!314 = metadata !{null, metadata !220, metadata !106, metadata !121}
!315 = metadata !{metadata !316}
!316 = metadata !{i32 786468}                     ; [ DW_TAG_base_type ] [line 0, size 0, align 0, offset 0]
!317 = metadata !{i32 786474, metadata !100, null, metadata !96, i32 0, i64 0, i64 0, i64 0, i32 0, metadata !108} ; [ DW_TAG_friend ] [line 0, size 0, align 0, offset 0] [from facet]
!318 = metadata !{i32 786474, metadata !100, null, metadata !96, i32 0, i64 0, i64 0, i64 0, i32 0, metadata !94} ; [ DW_TAG_friend ] [line 0, size 0, align 0, offset 0] [from locale]
!319 = metadata !{i32 786478, i32 0, metadata !94, metadata !"locale", metadata !"locale", metadata !"", metadata !96, i32 118, metadata !320, i1 false, i1 false, i32 0, i32 0, null, i32 256, i1 true, null, null, i32 0, metadata !323, i32 118} ; [ DW_TAG_subprogram ] [line 118] [locale]
!320 = metadata !{i32 786453, i32 0, metadata !"", i32 0, i32 0, i64 0, i64 0, i64 0, i32 0, null, metadata !321, i32 0, i32 0} ; [ DW_TAG_subroutine_type ] [line 0, size 0, align 0, offset 0] [from ]
!321 = metadata !{null, metadata !322}
!322 = metadata !{i32 786447, i32 0, metadata !"", i32 0, i32 0, i64 64, i64 64, i64 0, i32 1088, metadata !94} ; [ DW_TAG_pointer_type ] [line 0, size 64, align 64, offset 0] [from locale]
!323 = metadata !{metadata !324}
!324 = metadata !{i32 786468}                     ; [ DW_TAG_base_type ] [line 0, size 0, align 0, offset 0]
!325 = metadata !{i32 786478, i32 0, metadata !94, metadata !"locale", metadata !"locale", metadata !"", metadata !96, i32 127, metadata !326, i1 false, i1 false, i32 0, i32 0, null, i32 256, i1 true, null, null, i32 0, metadata !330, i32 127} ; [ DW_TAG_subprogram ] [line 127] [locale]
!326 = metadata !{i32 786453, i32 0, metadata !"", i32 0, i32 0, i64 0, i64 0, i64 0, i32 0, null, metadata !327, i32 0, i32 0} ; [ DW_TAG_subroutine_type ] [line 0, size 0, align 0, offset 0] [from ]
!327 = metadata !{null, metadata !322, metadata !328}
!328 = metadata !{i32 786448, null, null, null, i32 0, i64 0, i64 0, i64 0, i32 0, metadata !329} ; [ DW_TAG_reference_type ] [line 0, size 0, align 0, offset 0] [from ]
!329 = metadata !{i32 786470, null, metadata !"", null, i32 0, i64 0, i64 0, i64 0, i32 0, metadata !94} ; [ DW_TAG_const_type ] [line 0, size 0, align 0, offset 0] [from locale]
!330 = metadata !{metadata !331}
!331 = metadata !{i32 786468}                     ; [ DW_TAG_base_type ] [line 0, size 0, align 0, offset 0]
!332 = metadata !{i32 786478, i32 0, metadata !94, metadata !"locale", metadata !"locale", metadata !"", metadata !96, i32 138, metadata !333, i1 false, i1 false, i32 0, i32 0, null, i32 384, i1 true, null, null, i32 0, metadata !335, i32 138} ; [ DW_TAG_subprogram ] [line 138] [locale]
!333 = metadata !{i32 786453, i32 0, metadata !"", i32 0, i32 0, i64 0, i64 0, i64 0, i32 0, null, metadata !334, i32 0, i32 0} ; [ DW_TAG_subroutine_type ] [line 0, size 0, align 0, offset 0] [from ]
!334 = metadata !{null, metadata !322, metadata !159}
!335 = metadata !{metadata !336}
!336 = metadata !{i32 786468}                     ; [ DW_TAG_base_type ] [line 0, size 0, align 0, offset 0]
!337 = metadata !{i32 786478, i32 0, metadata !94, metadata !"locale", metadata !"locale", metadata !"", metadata !96, i32 152, metadata !338, i1 false, i1 false, i32 0, i32 0, null, i32 256, i1 true, null, null, i32 0, metadata !340, i32 152} ; [ DW_TAG_subprogram ] [line 152] [locale]
!338 = metadata !{i32 786453, i32 0, metadata !"", i32 0, i32 0, i64 0, i64 0, i64 0, i32 0, null, metadata !339, i32 0, i32 0} ; [ DW_TAG_subroutine_type ] [line 0, size 0, align 0, offset 0] [from ]
!339 = metadata !{null, metadata !322, metadata !328, metadata !159, metadata !264}
!340 = metadata !{metadata !341}
!341 = metadata !{i32 786468}                     ; [ DW_TAG_base_type ] [line 0, size 0, align 0, offset 0]
!342 = metadata !{i32 786478, i32 0, metadata !94, metadata !"locale", metadata !"locale", metadata !"", metadata !96, i32 165, metadata !343, i1 false, i1 false, i32 0, i32 0, null, i32 256, i1 true, null, null, i32 0, metadata !345, i32 165} ; [ DW_TAG_subprogram ] [line 165] [locale]
!343 = metadata !{i32 786453, i32 0, metadata !"", i32 0, i32 0, i64 0, i64 0, i64 0, i32 0, null, metadata !344, i32 0, i32 0} ; [ DW_TAG_subroutine_type ] [line 0, size 0, align 0, offset 0] [from ]
!344 = metadata !{null, metadata !322, metadata !328, metadata !328, metadata !264}
!345 = metadata !{metadata !346}
!346 = metadata !{i32 786468}                     ; [ DW_TAG_base_type ] [line 0, size 0, align 0, offset 0]
!347 = metadata !{i32 786478, i32 0, metadata !94, metadata !"~locale", metadata !"~locale", metadata !"", metadata !96, i32 181, metadata !320, i1 false, i1 false, i32 0, i32 0, null, i32 256, i1 true, null, null, i32 0, metadata !348, i32 181} ; [ DW_TAG_subprogram ] [line 181] [~locale]
!348 = metadata !{metadata !349}
!349 = metadata !{i32 786468}                     ; [ DW_TAG_base_type ] [line 0, size 0, align 0, offset 0]
!350 = metadata !{i32 786478, i32 0, metadata !94, metadata !"operator=", metadata !"operator=", metadata !"_ZNSt6localeaSERKS_", metadata !96, i32 192, metadata !351, i1 false, i1 false, i32 0, i32 0, null, i32 256, i1 true, null, null, i32 0, metadata !353, i32 192} ; [ DW_TAG_subprogram ] [line 192] [operator=]
!351 = metadata !{i32 786453, i32 0, metadata !"", i32 0, i32 0, i64 0, i64 0, i64 0, i32 0, null, metadata !352, i32 0, i32 0} ; [ DW_TAG_subroutine_type ] [line 0, size 0, align 0, offset 0] [from ]
!352 = metadata !{metadata !328, metadata !322, metadata !328}
!353 = metadata !{metadata !354}
!354 = metadata !{i32 786468}                     ; [ DW_TAG_base_type ] [line 0, size 0, align 0, offset 0]
!355 = metadata !{i32 786478, i32 0, metadata !94, metadata !"name", metadata !"name", metadata !"_ZNKSt6locale4nameEv", metadata !96, i32 216, metadata !356, i1 false, i1 false, i32 0, i32 0, null, i32 256, i1 true, null, null, i32 0, metadata !1130, i32 216} ; [ DW_TAG_subprogram ] [line 216] [name]
!356 = metadata !{i32 786453, i32 0, metadata !"", i32 0, i32 0, i64 0, i64 0, i64 0, i32 0, null, metadata !357, i32 0, i32 0} ; [ DW_TAG_subroutine_type ] [line 0, size 0, align 0, offset 0] [from ]
!357 = metadata !{metadata !358, metadata !1129}
!358 = metadata !{i32 786454, metadata !359, metadata !"string", metadata !96, i32 64, i64 0, i64 0, i64 0, i32 0, metadata !361} ; [ DW_TAG_typedef ] [string] [line 64, size 0, align 0, offset 0] [from basic_string<char>]
!359 = metadata !{i32 786489, null, metadata !"std", metadata !360, i32 42} ; [ DW_TAG_namespace ] [/home/asit/AC-workdir/AxC-SVN-SHARED-REPO/axc/workloads/bodytrack-PARSEC/src/TrackingBenchmark//usr/lib/gcc/x86_64-redhat-linux/4.6.3/../../../../include/c++/4.6.3/bits/stringfwd.h]
!360 = metadata !{i32 786473, metadata !"/usr/lib/gcc/x86_64-redhat-linux/4.6.3/../../../../include/c++/4.6.3/bits/stringfwd.h", metadata !"/home/asit/AC-workdir/AxC-SVN-SHARED-REPO/axc/workloads/bodytrack-PARSEC/src/TrackingBenchmark", null} ; [ DW_TAG_file_type ]
!361 = metadata !{i32 786434, metadata !359, metadata !"basic_string<char>", metadata !362, i32 1133, i64 64, i64 64, i32 0, i32 0, null, metadata !363, i32 0, null, metadata !1045} ; [ DW_TAG_class_type ] [basic_string<char>] [line 1133, size 64, align 64, offset 0] [from ]
!362 = metadata !{i32 786473, metadata !"/usr/lib/gcc/x86_64-redhat-linux/4.6.3/../../../../include/c++/4.6.3/bits/basic_string.tcc", metadata !"/home/asit/AC-workdir/AxC-SVN-SHARED-REPO/axc/workloads/bodytrack-PARSEC/src/TrackingBenchmark", null} ; [ DW_TAG_file_type ]
!363 = metadata !{metadata !364, metadata !464, metadata !471, metadata !477, metadata !484, metadata !493, metadata !496, metadata !501, metadata !508, metadata !513, metadata !518, metadata !523, metadata !528, metadata !531, metadata !536, metadata !541, metadata !548, metadata !553, metadata !558, metadata !563, metadata !568, metadata !571, metadata !577, metadata !580, metadata !585, metadata !591, metadata !596, metadata !601, metadata !606, metadata !611, metadata !616, metadata !619, metadata !625, metadata !630, metadata !635, metadata !640, metadata !645, metadata !648, metadata !651, metadata !659, metadata !666, metadata !669, metadata !672, metadata !677, metadata !680, metadata !683, metadata !688, metadata !693, metadata !696, metadata !699, metadata !702, metadata !707, metadata !714, metadata !721, metadata !724, metadata !727, metadata !730, metadata !733, metadata !736, metadata !739, metadata !744, metadata !749, metadata !752, metadata !757, metadata !762, metadata !765, metadata !768, metadata !771, metadata !774, metadata !777, metadata !782, metadata !787, metadata !792, metadata !797, metadata !802, metadata !807, metadata !812, metadata !817, metadata !822, metadata !827, metadata !832, metadata !837, metadata !842, metadata !847, metadata !852, metadata !857, metadata !862, metadata !867, metadata !872, metadata !877, metadata !882, metadata !887, metadata !892, metadata !895, metadata !898, metadata !903, metadata !906, metadata !911, metadata !916, metadata !921, metadata !924, metadata !930, metadata !935, metadata !940, metadata !945, metadata !950, metadata !953, metadata !956, metadata !959, metadata !962, metadata !965, metadata !968, metadata !971, metadata !974, metadata !977, metadata !980, metadata !983, metadata !986, metadata !989, metadata !992, metadata !995, metadata !998, metadata !1001, metadata !1004, metadata !1007, metadata !1010, metadata !1015, metadata !1020, metadata !1025, metadata !1030, metadata !1035, metadata !1040}
!364 = metadata !{i32 786445, metadata !361, metadata !"_M_dataplus", metadata !122, i32 283, i64 64, i64 64, i64 0, i32 1, metadata !365} ; [ DW_TAG_member ] [_M_dataplus] [line 283, size 64, align 64, offset 0] [private] [from _Alloc_hider]
!365 = metadata !{i32 786451, metadata !361, metadata !"_Alloc_hider", metadata !122, i32 266, i64 64, i64 64, i32 0, i32 0, null, metadata !366, i32 0, null, null} ; [ DW_TAG_structure_type ] [_Alloc_hider] [line 266, size 64, align 64, offset 0] [from ]
!366 = metadata !{metadata !367, metadata !457, metadata !458}
!367 = metadata !{i32 786460, metadata !365, null, metadata !122, i32 0, i64 0, i64 0, i64 0, i32 0, metadata !368} ; [ DW_TAG_inheritance ] [line 0, size 0, align 0, offset 0] [from allocator<char>]
!368 = metadata !{i32 786434, metadata !359, metadata !"allocator<char>", metadata !369, i32 143, i64 8, i64 8, i32 0, i32 0, null, metadata !370, i32 0, null, metadata !455} ; [ DW_TAG_class_type ] [allocator<char>] [line 143, size 8, align 8, offset 0] [from ]
!369 = metadata !{i32 786473, metadata !"/usr/lib/gcc/x86_64-redhat-linux/4.6.3/../../../../include/c++/4.6.3/bits/allocator.h", metadata !"/home/asit/AC-workdir/AxC-SVN-SHARED-REPO/axc/workloads/bodytrack-PARSEC/src/TrackingBenchmark", null} ; [ DW_TAG_file_type ]
!370 = metadata !{metadata !371, metadata !439, metadata !445, metadata !452}
!371 = metadata !{i32 786460, metadata !368, null, metadata !369, i32 0, i64 0, i64 0, i64 0, i32 0, metadata !372} ; [ DW_TAG_inheritance ] [line 0, size 0, align 0, offset 0] [from new_allocator<char>]
!372 = metadata !{i32 786434, metadata !373, metadata !"new_allocator<char>", metadata !374, i32 54, i64 8, i64 8, i32 0, i32 0, null, metadata !375, i32 0, null, metadata !437} ; [ DW_TAG_class_type ] [new_allocator<char>] [line 54, size 8, align 8, offset 0] [from ]
!373 = metadata !{i32 786489, null, metadata !"__gnu_cxx", metadata !374, i32 38} ; [ DW_TAG_namespace ] [/home/asit/AC-workdir/AxC-SVN-SHARED-REPO/axc/workloads/bodytrack-PARSEC/src/TrackingBenchmark//usr/lib/gcc/x86_64-redhat-linux/4.6.3/../../../../include/c++/4.6.3/ext/new_allocator.h]
!374 = metadata !{i32 786473, metadata !"/usr/lib/gcc/x86_64-redhat-linux/4.6.3/../../../../include/c++/4.6.3/ext/new_allocator.h", metadata !"/home/asit/AC-workdir/AxC-SVN-SHARED-REPO/axc/workloads/bodytrack-PARSEC/src/TrackingBenchmark", null} ; [ DW_TAG_file_type ]
!375 = metadata !{metadata !376, metadata !382, metadata !389, metadata !392, metadata !401, metadata !409, metadata !417, metadata !422, metadata !427, metadata !432}
!376 = metadata !{i32 786478, i32 0, metadata !372, metadata !"new_allocator", metadata !"new_allocator", metadata !"", metadata !374, i32 69, metadata !377, i1 false, i1 false, i32 0, i32 0, null, i32 256, i1 true, null, null, i32 0, metadata !380, i32 69} ; [ DW_TAG_subprogram ] [line 69] [new_allocator]
!377 = metadata !{i32 786453, i32 0, metadata !"", i32 0, i32 0, i64 0, i64 0, i64 0, i32 0, null, metadata !378, i32 0, i32 0} ; [ DW_TAG_subroutine_type ] [line 0, size 0, align 0, offset 0] [from ]
!378 = metadata !{null, metadata !379}
!379 = metadata !{i32 786447, i32 0, metadata !"", i32 0, i32 0, i64 64, i64 64, i64 0, i32 1088, metadata !372} ; [ DW_TAG_pointer_type ] [line 0, size 64, align 64, offset 0] [from new_allocator<char>]
!380 = metadata !{metadata !381}
!381 = metadata !{i32 786468}                     ; [ DW_TAG_base_type ] [line 0, size 0, align 0, offset 0]
!382 = metadata !{i32 786478, i32 0, metadata !372, metadata !"new_allocator", metadata !"new_allocator", metadata !"", metadata !374, i32 71, metadata !383, i1 false, i1 false, i32 0, i32 0, null, i32 256, i1 true, null, null, i32 0, metadata !387, i32 71} ; [ DW_TAG_subprogram ] [line 71] [new_allocator]
!383 = metadata !{i32 786453, i32 0, metadata !"", i32 0, i32 0, i64 0, i64 0, i64 0, i32 0, null, metadata !384, i32 0, i32 0} ; [ DW_TAG_subroutine_type ] [line 0, size 0, align 0, offset 0] [from ]
!384 = metadata !{null, metadata !379, metadata !385}
!385 = metadata !{i32 786448, null, null, null, i32 0, i64 0, i64 0, i64 0, i32 0, metadata !386} ; [ DW_TAG_reference_type ] [line 0, size 0, align 0, offset 0] [from ]
!386 = metadata !{i32 786470, null, metadata !"", null, i32 0, i64 0, i64 0, i64 0, i32 0, metadata !372} ; [ DW_TAG_const_type ] [line 0, size 0, align 0, offset 0] [from new_allocator<char>]
!387 = metadata !{metadata !388}
!388 = metadata !{i32 786468}                     ; [ DW_TAG_base_type ] [line 0, size 0, align 0, offset 0]
!389 = metadata !{i32 786478, i32 0, metadata !372, metadata !"~new_allocator", metadata !"~new_allocator", metadata !"", metadata !374, i32 76, metadata !377, i1 false, i1 false, i32 0, i32 0, null, i32 256, i1 true, null, null, i32 0, metadata !390, i32 76} ; [ DW_TAG_subprogram ] [line 76] [~new_allocator]
!390 = metadata !{metadata !391}
!391 = metadata !{i32 786468}                     ; [ DW_TAG_base_type ] [line 0, size 0, align 0, offset 0]
!392 = metadata !{i32 786478, i32 0, metadata !372, metadata !"address", metadata !"address", metadata !"_ZNK9__gnu_cxx13new_allocatorIcE7addressERc", metadata !374, i32 79, metadata !393, i1 false, i1 false, i32 0, i32 0, null, i32 256, i1 true, null, null, i32 0, metadata !399, i32 79} ; [ DW_TAG_subprogram ] [line 79] [address]
!393 = metadata !{i32 786453, i32 0, metadata !"", i32 0, i32 0, i64 0, i64 0, i64 0, i32 0, null, metadata !394, i32 0, i32 0} ; [ DW_TAG_subroutine_type ] [line 0, size 0, align 0, offset 0] [from ]
!394 = metadata !{metadata !395, metadata !396, metadata !397}
!395 = metadata !{i32 786454, metadata !372, metadata !"pointer", metadata !374, i32 59, i64 0, i64 0, i64 0, i32 0, metadata !216} ; [ DW_TAG_typedef ] [pointer] [line 59, size 0, align 0, offset 0] [from ]
!396 = metadata !{i32 786447, i32 0, metadata !"", i32 0, i32 0, i64 64, i64 64, i64 0, i32 1088, metadata !386} ; [ DW_TAG_pointer_type ] [line 0, size 64, align 64, offset 0] [from ]
!397 = metadata !{i32 786454, metadata !372, metadata !"reference", metadata !374, i32 61, i64 0, i64 0, i64 0, i32 0, metadata !398} ; [ DW_TAG_typedef ] [reference] [line 61, size 0, align 0, offset 0] [from ]
!398 = metadata !{i32 786448, null, null, null, i32 0, i64 0, i64 0, i64 0, i32 0, metadata !161} ; [ DW_TAG_reference_type ] [line 0, size 0, align 0, offset 0] [from char]
!399 = metadata !{metadata !400}
!400 = metadata !{i32 786468}                     ; [ DW_TAG_base_type ] [line 0, size 0, align 0, offset 0]
!401 = metadata !{i32 786478, i32 0, metadata !372, metadata !"address", metadata !"address", metadata !"_ZNK9__gnu_cxx13new_allocatorIcE7addressERKc", metadata !374, i32 82, metadata !402, i1 false, i1 false, i32 0, i32 0, null, i32 256, i1 true, null, null, i32 0, metadata !407, i32 82} ; [ DW_TAG_subprogram ] [line 82] [address]
!402 = metadata !{i32 786453, i32 0, metadata !"", i32 0, i32 0, i64 0, i64 0, i64 0, i32 0, null, metadata !403, i32 0, i32 0} ; [ DW_TAG_subroutine_type ] [line 0, size 0, align 0, offset 0] [from ]
!403 = metadata !{metadata !404, metadata !396, metadata !405}
!404 = metadata !{i32 786454, metadata !372, metadata !"const_pointer", metadata !374, i32 60, i64 0, i64 0, i64 0, i32 0, metadata !159} ; [ DW_TAG_typedef ] [const_pointer] [line 60, size 0, align 0, offset 0] [from ]
!405 = metadata !{i32 786454, metadata !372, metadata !"const_reference", metadata !374, i32 62, i64 0, i64 0, i64 0, i32 0, metadata !406} ; [ DW_TAG_typedef ] [const_reference] [line 62, size 0, align 0, offset 0] [from ]
!406 = metadata !{i32 786448, null, null, null, i32 0, i64 0, i64 0, i64 0, i32 0, metadata !160} ; [ DW_TAG_reference_type ] [line 0, size 0, align 0, offset 0] [from ]
!407 = metadata !{metadata !408}
!408 = metadata !{i32 786468}                     ; [ DW_TAG_base_type ] [line 0, size 0, align 0, offset 0]
!409 = metadata !{i32 786478, i32 0, metadata !372, metadata !"allocate", metadata !"allocate", metadata !"_ZN9__gnu_cxx13new_allocatorIcE8allocateEmPKv", metadata !374, i32 87, metadata !410, i1 false, i1 false, i32 0, i32 0, null, i32 256, i1 true, null, null, i32 0, metadata !415, i32 87} ; [ DW_TAG_subprogram ] [line 87] [allocate]
!410 = metadata !{i32 786453, i32 0, metadata !"", i32 0, i32 0, i64 0, i64 0, i64 0, i32 0, null, metadata !411, i32 0, i32 0} ; [ DW_TAG_subroutine_type ] [line 0, size 0, align 0, offset 0] [from ]
!411 = metadata !{metadata !395, metadata !379, metadata !412, metadata !413}
!412 = metadata !{i32 786454, null, metadata !"size_type", metadata !374, i32 57, i64 0, i64 0, i64 0, i32 0, metadata !121} ; [ DW_TAG_typedef ] [size_type] [line 57, size 0, align 0, offset 0] [from size_t]
!413 = metadata !{i32 786447, null, metadata !"", null, i32 0, i64 64, i64 64, i64 0, i32 0, metadata !414} ; [ DW_TAG_pointer_type ] [line 0, size 64, align 64, offset 0] [from ]
!414 = metadata !{i32 786470, null, metadata !"", null, i32 0, i64 0, i64 0, i64 0, i32 0, null} ; [ DW_TAG_const_type ] [line 0, size 0, align 0, offset 0] [from ]
!415 = metadata !{metadata !416}
!416 = metadata !{i32 786468}                     ; [ DW_TAG_base_type ] [line 0, size 0, align 0, offset 0]
!417 = metadata !{i32 786478, i32 0, metadata !372, metadata !"deallocate", metadata !"deallocate", metadata !"_ZN9__gnu_cxx13new_allocatorIcE10deallocateEPcm", metadata !374, i32 97, metadata !418, i1 false, i1 false, i32 0, i32 0, null, i32 256, i1 true, null, null, i32 0, metadata !420, i32 97} ; [ DW_TAG_subprogram ] [line 97] [deallocate]
!418 = metadata !{i32 786453, i32 0, metadata !"", i32 0, i32 0, i64 0, i64 0, i64 0, i32 0, null, metadata !419, i32 0, i32 0} ; [ DW_TAG_subroutine_type ] [line 0, size 0, align 0, offset 0] [from ]
!419 = metadata !{null, metadata !379, metadata !395, metadata !412}
!420 = metadata !{metadata !421}
!421 = metadata !{i32 786468}                     ; [ DW_TAG_base_type ] [line 0, size 0, align 0, offset 0]
!422 = metadata !{i32 786478, i32 0, metadata !372, metadata !"max_size", metadata !"max_size", metadata !"_ZNK9__gnu_cxx13new_allocatorIcE8max_sizeEv", metadata !374, i32 101, metadata !423, i1 false, i1 false, i32 0, i32 0, null, i32 256, i1 true, null, null, i32 0, metadata !425, i32 101} ; [ DW_TAG_subprogram ] [line 101] [max_size]
!423 = metadata !{i32 786453, i32 0, metadata !"", i32 0, i32 0, i64 0, i64 0, i64 0, i32 0, null, metadata !424, i32 0, i32 0} ; [ DW_TAG_subroutine_type ] [line 0, size 0, align 0, offset 0] [from ]
!424 = metadata !{metadata !412, metadata !396}
!425 = metadata !{metadata !426}
!426 = metadata !{i32 786468}                     ; [ DW_TAG_base_type ] [line 0, size 0, align 0, offset 0]
!427 = metadata !{i32 786478, i32 0, metadata !372, metadata !"construct", metadata !"construct", metadata !"_ZN9__gnu_cxx13new_allocatorIcE9constructEPcRKc", metadata !374, i32 107, metadata !428, i1 false, i1 false, i32 0, i32 0, null, i32 256, i1 true, null, null, i32 0, metadata !430, i32 107} ; [ DW_TAG_subprogram ] [line 107] [construct]
!428 = metadata !{i32 786453, i32 0, metadata !"", i32 0, i32 0, i64 0, i64 0, i64 0, i32 0, null, metadata !429, i32 0, i32 0} ; [ DW_TAG_subroutine_type ] [line 0, size 0, align 0, offset 0] [from ]
!429 = metadata !{null, metadata !379, metadata !395, metadata !406}
!430 = metadata !{metadata !431}
!431 = metadata !{i32 786468}                     ; [ DW_TAG_base_type ] [line 0, size 0, align 0, offset 0]
!432 = metadata !{i32 786478, i32 0, metadata !372, metadata !"destroy", metadata !"destroy", metadata !"_ZN9__gnu_cxx13new_allocatorIcE7destroyEPc", metadata !374, i32 118, metadata !433, i1 false, i1 false, i32 0, i32 0, null, i32 256, i1 true, null, null, i32 0, metadata !435, i32 118} ; [ DW_TAG_subprogram ] [line 118] [destroy]
!433 = metadata !{i32 786453, i32 0, metadata !"", i32 0, i32 0, i64 0, i64 0, i64 0, i32 0, null, metadata !434, i32 0, i32 0} ; [ DW_TAG_subroutine_type ] [line 0, size 0, align 0, offset 0] [from ]
!434 = metadata !{null, metadata !379, metadata !395}
!435 = metadata !{metadata !436}
!436 = metadata !{i32 786468}                     ; [ DW_TAG_base_type ] [line 0, size 0, align 0, offset 0]
!437 = metadata !{metadata !438}
!438 = metadata !{i32 786479, null, metadata !"_Tp", metadata !161, null, i32 0, i32 0} ; [ DW_TAG_template_type_parameter ]
!439 = metadata !{i32 786478, i32 0, metadata !368, metadata !"allocator", metadata !"allocator", metadata !"", metadata !369, i32 107, metadata !440, i1 false, i1 false, i32 0, i32 0, null, i32 256, i1 true, null, null, i32 0, metadata !443, i32 107} ; [ DW_TAG_subprogram ] [line 107] [allocator]
!440 = metadata !{i32 786453, i32 0, metadata !"", i32 0, i32 0, i64 0, i64 0, i64 0, i32 0, null, metadata !441, i32 0, i32 0} ; [ DW_TAG_subroutine_type ] [line 0, size 0, align 0, offset 0] [from ]
!441 = metadata !{null, metadata !442}
!442 = metadata !{i32 786447, i32 0, metadata !"", i32 0, i32 0, i64 64, i64 64, i64 0, i32 1088, metadata !368} ; [ DW_TAG_pointer_type ] [line 0, size 64, align 64, offset 0] [from allocator<char>]
!443 = metadata !{metadata !444}
!444 = metadata !{i32 786468}                     ; [ DW_TAG_base_type ] [line 0, size 0, align 0, offset 0]
!445 = metadata !{i32 786478, i32 0, metadata !368, metadata !"allocator", metadata !"allocator", metadata !"", metadata !369, i32 109, metadata !446, i1 false, i1 false, i32 0, i32 0, null, i32 256, i1 true, null, null, i32 0, metadata !450, i32 109} ; [ DW_TAG_subprogram ] [line 109] [allocator]
!446 = metadata !{i32 786453, i32 0, metadata !"", i32 0, i32 0, i64 0, i64 0, i64 0, i32 0, null, metadata !447, i32 0, i32 0} ; [ DW_TAG_subroutine_type ] [line 0, size 0, align 0, offset 0] [from ]
!447 = metadata !{null, metadata !442, metadata !448}
!448 = metadata !{i32 786448, null, null, null, i32 0, i64 0, i64 0, i64 0, i32 0, metadata !449} ; [ DW_TAG_reference_type ] [line 0, size 0, align 0, offset 0] [from ]
!449 = metadata !{i32 786470, null, metadata !"", null, i32 0, i64 0, i64 0, i64 0, i32 0, metadata !368} ; [ DW_TAG_const_type ] [line 0, size 0, align 0, offset 0] [from allocator<char>]
!450 = metadata !{metadata !451}
!451 = metadata !{i32 786468}                     ; [ DW_TAG_base_type ] [line 0, size 0, align 0, offset 0]
!452 = metadata !{i32 786478, i32 0, metadata !368, metadata !"~allocator", metadata !"~allocator", metadata !"", metadata !369, i32 115, metadata !440, i1 false, i1 false, i32 0, i32 0, null, i32 256, i1 true, null, null, i32 0, metadata !453, i32 115} ; [ DW_TAG_subprogram ] [line 115] [~allocator]
!453 = metadata !{metadata !454}
!454 = metadata !{i32 786468}                     ; [ DW_TAG_base_type ] [line 0, size 0, align 0, offset 0]
!455 = metadata !{metadata !456}
!456 = metadata !{i32 786479, null, metadata !"_Alloc", metadata !161, null, i32 0, i32 0} ; [ DW_TAG_template_type_parameter ]
!457 = metadata !{i32 786445, metadata !365, metadata !"_M_p", metadata !122, i32 271, i64 64, i64 64, i64 0, i32 0, metadata !216} ; [ DW_TAG_member ] [_M_p] [line 271, size 64, align 64, offset 0] [from ]
!458 = metadata !{i32 786478, i32 0, metadata !365, metadata !"_Alloc_hider", metadata !"_Alloc_hider", metadata !"", metadata !122, i32 268, metadata !459, i1 false, i1 false, i32 0, i32 0, null, i32 256, i1 true, null, null, i32 0, metadata !462, i32 268} ; [ DW_TAG_subprogram ] [line 268] [_Alloc_hider]
!459 = metadata !{i32 786453, i32 0, metadata !"", i32 0, i32 0, i64 0, i64 0, i64 0, i32 0, null, metadata !460, i32 0, i32 0} ; [ DW_TAG_subroutine_type ] [line 0, size 0, align 0, offset 0] [from ]
!460 = metadata !{null, metadata !461, metadata !216, metadata !448}
!461 = metadata !{i32 786447, i32 0, metadata !"", i32 0, i32 0, i64 64, i64 64, i64 0, i32 1088, metadata !365} ; [ DW_TAG_pointer_type ] [line 0, size 64, align 64, offset 0] [from _Alloc_hider]
!462 = metadata !{metadata !463}
!463 = metadata !{i32 786468}                     ; [ DW_TAG_base_type ] [line 0, size 0, align 0, offset 0]
!464 = metadata !{i32 786478, i32 0, metadata !361, metadata !"_M_data", metadata !"_M_data", metadata !"_ZNKSs7_M_dataEv", metadata !122, i32 286, metadata !465, i1 false, i1 false, i32 0, i32 0, null, i32 257, i1 true, null, null, i32 0, metadata !469, i32 286} ; [ DW_TAG_subprogram ] [line 286] [_M_data]
!465 = metadata !{i32 786453, i32 0, metadata !"", i32 0, i32 0, i64 0, i64 0, i64 0, i32 0, null, metadata !466, i32 0, i32 0} ; [ DW_TAG_subroutine_type ] [line 0, size 0, align 0, offset 0] [from ]
!466 = metadata !{metadata !216, metadata !467}
!467 = metadata !{i32 786447, i32 0, metadata !"", i32 0, i32 0, i64 64, i64 64, i64 0, i32 1088, metadata !468} ; [ DW_TAG_pointer_type ] [line 0, size 64, align 64, offset 0] [from ]
!468 = metadata !{i32 786470, null, metadata !"", null, i32 0, i64 0, i64 0, i64 0, i32 0, metadata !361} ; [ DW_TAG_const_type ] [line 0, size 0, align 0, offset 0] [from basic_string<char>]
!469 = metadata !{metadata !470}
!470 = metadata !{i32 786468}                     ; [ DW_TAG_base_type ] [line 0, size 0, align 0, offset 0]
!471 = metadata !{i32 786478, i32 0, metadata !361, metadata !"_M_data", metadata !"_M_data", metadata !"_ZNSs7_M_dataEPc", metadata !122, i32 290, metadata !472, i1 false, i1 false, i32 0, i32 0, null, i32 257, i1 true, null, null, i32 0, metadata !475, i32 290} ; [ DW_TAG_subprogram ] [line 290] [_M_data]
!472 = metadata !{i32 786453, i32 0, metadata !"", i32 0, i32 0, i64 0, i64 0, i64 0, i32 0, null, metadata !473, i32 0, i32 0} ; [ DW_TAG_subroutine_type ] [line 0, size 0, align 0, offset 0] [from ]
!473 = metadata !{metadata !216, metadata !474, metadata !216}
!474 = metadata !{i32 786447, i32 0, metadata !"", i32 0, i32 0, i64 64, i64 64, i64 0, i32 1088, metadata !361} ; [ DW_TAG_pointer_type ] [line 0, size 64, align 64, offset 0] [from basic_string<char>]
!475 = metadata !{metadata !476}
!476 = metadata !{i32 786468}                     ; [ DW_TAG_base_type ] [line 0, size 0, align 0, offset 0]
!477 = metadata !{i32 786478, i32 0, metadata !361, metadata !"_M_rep", metadata !"_M_rep", metadata !"_ZNKSs6_M_repEv", metadata !122, i32 294, metadata !478, i1 false, i1 false, i32 0, i32 0, null, i32 257, i1 true, null, null, i32 0, metadata !482, i32 294} ; [ DW_TAG_subprogram ] [line 294] [_M_rep]
!478 = metadata !{i32 786453, i32 0, metadata !"", i32 0, i32 0, i64 0, i64 0, i64 0, i32 0, null, metadata !479, i32 0, i32 0} ; [ DW_TAG_subroutine_type ] [line 0, size 0, align 0, offset 0] [from ]
!479 = metadata !{metadata !480, metadata !467}
!480 = metadata !{i32 786447, null, metadata !"", null, i32 0, i64 64, i64 64, i64 0, i32 0, metadata !481} ; [ DW_TAG_pointer_type ] [line 0, size 64, align 64, offset 0] [from _Rep]
!481 = metadata !{i32 786451, metadata !361, metadata !"_Rep", metadata !122, i32 149, i64 0, i64 0, i32 0, i32 4, null, null, i32 0} ; [ DW_TAG_structure_type ] [_Rep] [line 149, size 0, align 0, offset 0] [fwd] [from ]
!482 = metadata !{metadata !483}
!483 = metadata !{i32 786468}                     ; [ DW_TAG_base_type ] [line 0, size 0, align 0, offset 0]
!484 = metadata !{i32 786478, i32 0, metadata !361, metadata !"_M_ibegin", metadata !"_M_ibegin", metadata !"_ZNKSs9_M_ibeginEv", metadata !122, i32 300, metadata !485, i1 false, i1 false, i32 0, i32 0, null, i32 257, i1 true, null, null, i32 0, metadata !491, i32 300} ; [ DW_TAG_subprogram ] [line 300] [_M_ibegin]
!485 = metadata !{i32 786453, i32 0, metadata !"", i32 0, i32 0, i64 0, i64 0, i64 0, i32 0, null, metadata !486, i32 0, i32 0} ; [ DW_TAG_subroutine_type ] [line 0, size 0, align 0, offset 0] [from ]
!486 = metadata !{metadata !487, metadata !467}
!487 = metadata !{i32 786454, metadata !361, metadata !"iterator", metadata !362, i32 121, i64 0, i64 0, i64 0, i32 0, metadata !488} ; [ DW_TAG_typedef ] [iterator] [line 121, size 0, align 0, offset 0] [from __normal_iterator<char *, std::basic_string<char> >]
!488 = metadata !{i32 786434, metadata !489, metadata !"__normal_iterator<char *, std::basic_string<char> >", metadata !490, i32 702, i64 0, i64 0, i32 0, i32 4, null, null, i32 0} ; [ DW_TAG_class_type ] [__normal_iterator<char *, std::basic_string<char> >] [line 702, size 0, align 0, offset 0] [fwd] [from ]
!489 = metadata !{i32 786489, null, metadata !"__gnu_cxx", metadata !490, i32 688} ; [ DW_TAG_namespace ] [/home/asit/AC-workdir/AxC-SVN-SHARED-REPO/axc/workloads/bodytrack-PARSEC/src/TrackingBenchmark//usr/lib/gcc/x86_64-redhat-linux/4.6.3/../../../../include/c++/4.6.3/bits/stl_iterator.h]
!490 = metadata !{i32 786473, metadata !"/usr/lib/gcc/x86_64-redhat-linux/4.6.3/../../../../include/c++/4.6.3/bits/stl_iterator.h", metadata !"/home/asit/AC-workdir/AxC-SVN-SHARED-REPO/axc/workloads/bodytrack-PARSEC/src/TrackingBenchmark", null} ; [ DW_TAG_file_type ]
!491 = metadata !{metadata !492}
!492 = metadata !{i32 786468}                     ; [ DW_TAG_base_type ] [line 0, size 0, align 0, offset 0]
!493 = metadata !{i32 786478, i32 0, metadata !361, metadata !"_M_iend", metadata !"_M_iend", metadata !"_ZNKSs7_M_iendEv", metadata !122, i32 304, metadata !485, i1 false, i1 false, i32 0, i32 0, null, i32 257, i1 true, null, null, i32 0, metadata !494, i32 304} ; [ DW_TAG_subprogram ] [line 304] [_M_iend]
!494 = metadata !{metadata !495}
!495 = metadata !{i32 786468}                     ; [ DW_TAG_base_type ] [line 0, size 0, align 0, offset 0]
!496 = metadata !{i32 786478, i32 0, metadata !361, metadata !"_M_leak", metadata !"_M_leak", metadata !"_ZNSs7_M_leakEv", metadata !122, i32 308, metadata !497, i1 false, i1 false, i32 0, i32 0, null, i32 257, i1 true, null, null, i32 0, metadata !499, i32 308} ; [ DW_TAG_subprogram ] [line 308] [_M_leak]
!497 = metadata !{i32 786453, i32 0, metadata !"", i32 0, i32 0, i64 0, i64 0, i64 0, i32 0, null, metadata !498, i32 0, i32 0} ; [ DW_TAG_subroutine_type ] [line 0, size 0, align 0, offset 0] [from ]
!498 = metadata !{null, metadata !474}
!499 = metadata !{metadata !500}
!500 = metadata !{i32 786468}                     ; [ DW_TAG_base_type ] [line 0, size 0, align 0, offset 0]
!501 = metadata !{i32 786478, i32 0, metadata !361, metadata !"_M_check", metadata !"_M_check", metadata !"_ZNKSs8_M_checkEmPKc", metadata !122, i32 315, metadata !502, i1 false, i1 false, i32 0, i32 0, null, i32 257, i1 true, null, null, i32 0, metadata !506, i32 315} ; [ DW_TAG_subprogram ] [line 315] [_M_check]
!502 = metadata !{i32 786453, i32 0, metadata !"", i32 0, i32 0, i64 0, i64 0, i64 0, i32 0, null, metadata !503, i32 0, i32 0} ; [ DW_TAG_subroutine_type ] [line 0, size 0, align 0, offset 0] [from ]
!503 = metadata !{metadata !504, metadata !467, metadata !504, metadata !159}
!504 = metadata !{i32 786454, metadata !361, metadata !"size_type", metadata !122, i32 115, i64 0, i64 0, i64 0, i32 0, metadata !505} ; [ DW_TAG_typedef ] [size_type] [line 115, size 0, align 0, offset 0] [from size_type]
!505 = metadata !{i32 786454, metadata !368, metadata !"size_type", metadata !122, i32 95, i64 0, i64 0, i64 0, i32 0, metadata !121} ; [ DW_TAG_typedef ] [size_type] [line 95, size 0, align 0, offset 0] [from size_t]
!506 = metadata !{metadata !507}
!507 = metadata !{i32 786468}                     ; [ DW_TAG_base_type ] [line 0, size 0, align 0, offset 0]
!508 = metadata !{i32 786478, i32 0, metadata !361, metadata !"_M_check_length", metadata !"_M_check_length", metadata !"_ZNKSs15_M_check_lengthEmmPKc", metadata !122, i32 323, metadata !509, i1 false, i1 false, i32 0, i32 0, null, i32 257, i1 true, null, null, i32 0, metadata !511, i32 323} ; [ DW_TAG_subprogram ] [line 323] [_M_check_length]
!509 = metadata !{i32 786453, i32 0, metadata !"", i32 0, i32 0, i64 0, i64 0, i64 0, i32 0, null, metadata !510, i32 0, i32 0} ; [ DW_TAG_subroutine_type ] [line 0, size 0, align 0, offset 0] [from ]
!510 = metadata !{null, metadata !467, metadata !504, metadata !504, metadata !159}
!511 = metadata !{metadata !512}
!512 = metadata !{i32 786468}                     ; [ DW_TAG_base_type ] [line 0, size 0, align 0, offset 0]
!513 = metadata !{i32 786478, i32 0, metadata !361, metadata !"_M_limit", metadata !"_M_limit", metadata !"_ZNKSs8_M_limitEmm", metadata !122, i32 331, metadata !514, i1 false, i1 false, i32 0, i32 0, null, i32 257, i1 true, null, null, i32 0, metadata !516, i32 331} ; [ DW_TAG_subprogram ] [line 331] [_M_limit]
!514 = metadata !{i32 786453, i32 0, metadata !"", i32 0, i32 0, i64 0, i64 0, i64 0, i32 0, null, metadata !515, i32 0, i32 0} ; [ DW_TAG_subroutine_type ] [line 0, size 0, align 0, offset 0] [from ]
!515 = metadata !{metadata !504, metadata !467, metadata !504, metadata !504}
!516 = metadata !{metadata !517}
!517 = metadata !{i32 786468}                     ; [ DW_TAG_base_type ] [line 0, size 0, align 0, offset 0]
!518 = metadata !{i32 786478, i32 0, metadata !361, metadata !"_M_disjunct", metadata !"_M_disjunct", metadata !"_ZNKSs11_M_disjunctEPKc", metadata !122, i32 339, metadata !519, i1 false, i1 false, i32 0, i32 0, null, i32 257, i1 true, null, null, i32 0, metadata !521, i32 339} ; [ DW_TAG_subprogram ] [line 339] [_M_disjunct]
!519 = metadata !{i32 786453, i32 0, metadata !"", i32 0, i32 0, i64 0, i64 0, i64 0, i32 0, null, metadata !520, i32 0, i32 0} ; [ DW_TAG_subroutine_type ] [line 0, size 0, align 0, offset 0] [from ]
!520 = metadata !{metadata !257, metadata !467, metadata !159}
!521 = metadata !{metadata !522}
!522 = metadata !{i32 786468}                     ; [ DW_TAG_base_type ] [line 0, size 0, align 0, offset 0]
!523 = metadata !{i32 786478, i32 0, metadata !361, metadata !"_M_copy", metadata !"_M_copy", metadata !"_ZNSs7_M_copyEPcPKcm", metadata !122, i32 348, metadata !524, i1 false, i1 false, i32 0, i32 0, null, i32 257, i1 true, null, null, i32 0, metadata !526, i32 348} ; [ DW_TAG_subprogram ] [line 348] [_M_copy]
!524 = metadata !{i32 786453, i32 0, metadata !"", i32 0, i32 0, i64 0, i64 0, i64 0, i32 0, null, metadata !525, i32 0, i32 0} ; [ DW_TAG_subroutine_type ] [line 0, size 0, align 0, offset 0] [from ]
!525 = metadata !{null, metadata !216, metadata !159, metadata !504}
!526 = metadata !{metadata !527}
!527 = metadata !{i32 786468}                     ; [ DW_TAG_base_type ] [line 0, size 0, align 0, offset 0]
!528 = metadata !{i32 786478, i32 0, metadata !361, metadata !"_M_move", metadata !"_M_move", metadata !"_ZNSs7_M_moveEPcPKcm", metadata !122, i32 357, metadata !524, i1 false, i1 false, i32 0, i32 0, null, i32 257, i1 true, null, null, i32 0, metadata !529, i32 357} ; [ DW_TAG_subprogram ] [line 357] [_M_move]
!529 = metadata !{metadata !530}
!530 = metadata !{i32 786468}                     ; [ DW_TAG_base_type ] [line 0, size 0, align 0, offset 0]
!531 = metadata !{i32 786478, i32 0, metadata !361, metadata !"_M_assign", metadata !"_M_assign", metadata !"_ZNSs9_M_assignEPcmc", metadata !122, i32 366, metadata !532, i1 false, i1 false, i32 0, i32 0, null, i32 257, i1 true, null, null, i32 0, metadata !534, i32 366} ; [ DW_TAG_subprogram ] [line 366] [_M_assign]
!532 = metadata !{i32 786453, i32 0, metadata !"", i32 0, i32 0, i64 0, i64 0, i64 0, i32 0, null, metadata !533, i32 0, i32 0} ; [ DW_TAG_subroutine_type ] [line 0, size 0, align 0, offset 0] [from ]
!533 = metadata !{null, metadata !216, metadata !504, metadata !161}
!534 = metadata !{metadata !535}
!535 = metadata !{i32 786468}                     ; [ DW_TAG_base_type ] [line 0, size 0, align 0, offset 0]
!536 = metadata !{i32 786478, i32 0, metadata !361, metadata !"_S_copy_chars", metadata !"_S_copy_chars", metadata !"_ZNSs13_S_copy_charsEPcN9__gnu_cxx17__normal_iteratorIS_SsEES2_", metadata !122, i32 385, metadata !537, i1 false, i1 false, i32 0, i32 0, null, i32 257, i1 true, null, null, i32 0, metadata !539, i32 385} ; [ DW_TAG_subprogram ] [line 385] [_S_copy_chars]
!537 = metadata !{i32 786453, i32 0, metadata !"", i32 0, i32 0, i64 0, i64 0, i64 0, i32 0, null, metadata !538, i32 0, i32 0} ; [ DW_TAG_subroutine_type ] [line 0, size 0, align 0, offset 0] [from ]
!538 = metadata !{null, metadata !216, metadata !487, metadata !487}
!539 = metadata !{metadata !540}
!540 = metadata !{i32 786468}                     ; [ DW_TAG_base_type ] [line 0, size 0, align 0, offset 0]
!541 = metadata !{i32 786478, i32 0, metadata !361, metadata !"_S_copy_chars", metadata !"_S_copy_chars", metadata !"_ZNSs13_S_copy_charsEPcN9__gnu_cxx17__normal_iteratorIPKcSsEES4_", metadata !122, i32 389, metadata !542, i1 false, i1 false, i32 0, i32 0, null, i32 257, i1 true, null, null, i32 0, metadata !546, i32 389} ; [ DW_TAG_subprogram ] [line 389] [_S_copy_chars]
!542 = metadata !{i32 786453, i32 0, metadata !"", i32 0, i32 0, i64 0, i64 0, i64 0, i32 0, null, metadata !543, i32 0, i32 0} ; [ DW_TAG_subroutine_type ] [line 0, size 0, align 0, offset 0] [from ]
!543 = metadata !{null, metadata !216, metadata !544, metadata !544}
!544 = metadata !{i32 786454, metadata !361, metadata !"const_iterator", metadata !362, i32 123, i64 0, i64 0, i64 0, i32 0, metadata !545} ; [ DW_TAG_typedef ] [const_iterator] [line 123, size 0, align 0, offset 0] [from __normal_iterator<const char *, std::basic_string<char> >]
!545 = metadata !{i32 786434, metadata !489, metadata !"__normal_iterator<const char *, std::basic_string<char> >", metadata !490, i32 702, i64 0, i64 0, i32 0, i32 4, null, null, i32 0} ; [ DW_TAG_class_type ] [__normal_iterator<const char *, std::basic_string<char> >] [line 702, size 0, align 0, offset 0] [fwd] [from ]
!546 = metadata !{metadata !547}
!547 = metadata !{i32 786468}                     ; [ DW_TAG_base_type ] [line 0, size 0, align 0, offset 0]
!548 = metadata !{i32 786478, i32 0, metadata !361, metadata !"_S_copy_chars", metadata !"_S_copy_chars", metadata !"_ZNSs13_S_copy_charsEPcS_S_", metadata !122, i32 393, metadata !549, i1 false, i1 false, i32 0, i32 0, null, i32 257, i1 true, null, null, i32 0, metadata !551, i32 393} ; [ DW_TAG_subprogram ] [line 393] [_S_copy_chars]
!549 = metadata !{i32 786453, i32 0, metadata !"", i32 0, i32 0, i64 0, i64 0, i64 0, i32 0, null, metadata !550, i32 0, i32 0} ; [ DW_TAG_subroutine_type ] [line 0, size 0, align 0, offset 0] [from ]
!550 = metadata !{null, metadata !216, metadata !216, metadata !216}
!551 = metadata !{metadata !552}
!552 = metadata !{i32 786468}                     ; [ DW_TAG_base_type ] [line 0, size 0, align 0, offset 0]
!553 = metadata !{i32 786478, i32 0, metadata !361, metadata !"_S_copy_chars", metadata !"_S_copy_chars", metadata !"_ZNSs13_S_copy_charsEPcPKcS1_", metadata !122, i32 397, metadata !554, i1 false, i1 false, i32 0, i32 0, null, i32 257, i1 true, null, null, i32 0, metadata !556, i32 397} ; [ DW_TAG_subprogram ] [line 397] [_S_copy_chars]
!554 = metadata !{i32 786453, i32 0, metadata !"", i32 0, i32 0, i64 0, i64 0, i64 0, i32 0, null, metadata !555, i32 0, i32 0} ; [ DW_TAG_subroutine_type ] [line 0, size 0, align 0, offset 0] [from ]
!555 = metadata !{null, metadata !216, metadata !159, metadata !159}
!556 = metadata !{metadata !557}
!557 = metadata !{i32 786468}                     ; [ DW_TAG_base_type ] [line 0, size 0, align 0, offset 0]
!558 = metadata !{i32 786478, i32 0, metadata !361, metadata !"_S_compare", metadata !"_S_compare", metadata !"_ZNSs10_S_compareEmm", metadata !122, i32 401, metadata !559, i1 false, i1 false, i32 0, i32 0, null, i32 257, i1 true, null, null, i32 0, metadata !561, i32 401} ; [ DW_TAG_subprogram ] [line 401] [_S_compare]
!559 = metadata !{i32 786453, i32 0, metadata !"", i32 0, i32 0, i64 0, i64 0, i64 0, i32 0, null, metadata !560, i32 0, i32 0} ; [ DW_TAG_subroutine_type ] [line 0, size 0, align 0, offset 0] [from ]
!560 = metadata !{metadata !56, metadata !504, metadata !504}
!561 = metadata !{metadata !562}
!562 = metadata !{i32 786468}                     ; [ DW_TAG_base_type ] [line 0, size 0, align 0, offset 0]
!563 = metadata !{i32 786478, i32 0, metadata !361, metadata !"_M_mutate", metadata !"_M_mutate", metadata !"_ZNSs9_M_mutateEmmm", metadata !122, i32 414, metadata !564, i1 false, i1 false, i32 0, i32 0, null, i32 257, i1 true, null, null, i32 0, metadata !566, i32 414} ; [ DW_TAG_subprogram ] [line 414] [_M_mutate]
!564 = metadata !{i32 786453, i32 0, metadata !"", i32 0, i32 0, i64 0, i64 0, i64 0, i32 0, null, metadata !565, i32 0, i32 0} ; [ DW_TAG_subroutine_type ] [line 0, size 0, align 0, offset 0] [from ]
!565 = metadata !{null, metadata !474, metadata !504, metadata !504, metadata !504}
!566 = metadata !{metadata !567}
!567 = metadata !{i32 786468}                     ; [ DW_TAG_base_type ] [line 0, size 0, align 0, offset 0]
!568 = metadata !{i32 786478, i32 0, metadata !361, metadata !"_M_leak_hard", metadata !"_M_leak_hard", metadata !"_ZNSs12_M_leak_hardEv", metadata !122, i32 417, metadata !497, i1 false, i1 false, i32 0, i32 0, null, i32 257, i1 true, null, null, i32 0, metadata !569, i32 417} ; [ DW_TAG_subprogram ] [line 417] [_M_leak_hard]
!569 = metadata !{metadata !570}
!570 = metadata !{i32 786468}                     ; [ DW_TAG_base_type ] [line 0, size 0, align 0, offset 0]
!571 = metadata !{i32 786478, i32 0, metadata !361, metadata !"_S_empty_rep", metadata !"_S_empty_rep", metadata !"_ZNSs12_S_empty_repEv", metadata !122, i32 420, metadata !572, i1 false, i1 false, i32 0, i32 0, null, i32 257, i1 true, null, null, i32 0, metadata !575, i32 420} ; [ DW_TAG_subprogram ] [line 420] [_S_empty_rep]
!572 = metadata !{i32 786453, i32 0, metadata !"", i32 0, i32 0, i64 0, i64 0, i64 0, i32 0, null, metadata !573, i32 0, i32 0} ; [ DW_TAG_subroutine_type ] [line 0, size 0, align 0, offset 0] [from ]
!573 = metadata !{metadata !574}
!574 = metadata !{i32 786448, null, null, null, i32 0, i64 0, i64 0, i64 0, i32 0, metadata !481} ; [ DW_TAG_reference_type ] [line 0, size 0, align 0, offset 0] [from _Rep]
!575 = metadata !{metadata !576}
!576 = metadata !{i32 786468}                     ; [ DW_TAG_base_type ] [line 0, size 0, align 0, offset 0]
!577 = metadata !{i32 786478, i32 0, metadata !361, metadata !"basic_string", metadata !"basic_string", metadata !"", metadata !122, i32 431, metadata !497, i1 false, i1 false, i32 0, i32 0, null, i32 256, i1 true, null, null, i32 0, metadata !578, i32 431} ; [ DW_TAG_subprogram ] [line 431] [basic_string]
!578 = metadata !{metadata !579}
!579 = metadata !{i32 786468}                     ; [ DW_TAG_base_type ] [line 0, size 0, align 0, offset 0]
!580 = metadata !{i32 786478, i32 0, metadata !361, metadata !"basic_string", metadata !"basic_string", metadata !"", metadata !122, i32 442, metadata !581, i1 false, i1 false, i32 0, i32 0, null, i32 384, i1 true, null, null, i32 0, metadata !583, i32 442} ; [ DW_TAG_subprogram ] [line 442] [basic_string]
!581 = metadata !{i32 786453, i32 0, metadata !"", i32 0, i32 0, i64 0, i64 0, i64 0, i32 0, null, metadata !582, i32 0, i32 0} ; [ DW_TAG_subroutine_type ] [line 0, size 0, align 0, offset 0] [from ]
!582 = metadata !{null, metadata !474, metadata !448}
!583 = metadata !{metadata !584}
!584 = metadata !{i32 786468}                     ; [ DW_TAG_base_type ] [line 0, size 0, align 0, offset 0]
!585 = metadata !{i32 786478, i32 0, metadata !361, metadata !"basic_string", metadata !"basic_string", metadata !"", metadata !122, i32 449, metadata !586, i1 false, i1 false, i32 0, i32 0, null, i32 256, i1 true, null, null, i32 0, metadata !589, i32 449} ; [ DW_TAG_subprogram ] [line 449] [basic_string]
!586 = metadata !{i32 786453, i32 0, metadata !"", i32 0, i32 0, i64 0, i64 0, i64 0, i32 0, null, metadata !587, i32 0, i32 0} ; [ DW_TAG_subroutine_type ] [line 0, size 0, align 0, offset 0] [from ]
!587 = metadata !{null, metadata !474, metadata !588}
!588 = metadata !{i32 786448, null, null, null, i32 0, i64 0, i64 0, i64 0, i32 0, metadata !468} ; [ DW_TAG_reference_type ] [line 0, size 0, align 0, offset 0] [from ]
!589 = metadata !{metadata !590}
!590 = metadata !{i32 786468}                     ; [ DW_TAG_base_type ] [line 0, size 0, align 0, offset 0]
!591 = metadata !{i32 786478, i32 0, metadata !361, metadata !"basic_string", metadata !"basic_string", metadata !"", metadata !122, i32 456, metadata !592, i1 false, i1 false, i32 0, i32 0, null, i32 256, i1 true, null, null, i32 0, metadata !594, i32 456} ; [ DW_TAG_subprogram ] [line 456] [basic_string]
!592 = metadata !{i32 786453, i32 0, metadata !"", i32 0, i32 0, i64 0, i64 0, i64 0, i32 0, null, metadata !593, i32 0, i32 0} ; [ DW_TAG_subroutine_type ] [line 0, size 0, align 0, offset 0] [from ]
!593 = metadata !{null, metadata !474, metadata !588, metadata !504, metadata !504}
!594 = metadata !{metadata !595}
!595 = metadata !{i32 786468}                     ; [ DW_TAG_base_type ] [line 0, size 0, align 0, offset 0]
!596 = metadata !{i32 786478, i32 0, metadata !361, metadata !"basic_string", metadata !"basic_string", metadata !"", metadata !122, i32 465, metadata !597, i1 false, i1 false, i32 0, i32 0, null, i32 256, i1 true, null, null, i32 0, metadata !599, i32 465} ; [ DW_TAG_subprogram ] [line 465] [basic_string]
!597 = metadata !{i32 786453, i32 0, metadata !"", i32 0, i32 0, i64 0, i64 0, i64 0, i32 0, null, metadata !598, i32 0, i32 0} ; [ DW_TAG_subroutine_type ] [line 0, size 0, align 0, offset 0] [from ]
!598 = metadata !{null, metadata !474, metadata !588, metadata !504, metadata !504, metadata !448}
!599 = metadata !{metadata !600}
!600 = metadata !{i32 786468}                     ; [ DW_TAG_base_type ] [line 0, size 0, align 0, offset 0]
!601 = metadata !{i32 786478, i32 0, metadata !361, metadata !"basic_string", metadata !"basic_string", metadata !"", metadata !122, i32 477, metadata !602, i1 false, i1 false, i32 0, i32 0, null, i32 256, i1 true, null, null, i32 0, metadata !604, i32 477} ; [ DW_TAG_subprogram ] [line 477] [basic_string]
!602 = metadata !{i32 786453, i32 0, metadata !"", i32 0, i32 0, i64 0, i64 0, i64 0, i32 0, null, metadata !603, i32 0, i32 0} ; [ DW_TAG_subroutine_type ] [line 0, size 0, align 0, offset 0] [from ]
!603 = metadata !{null, metadata !474, metadata !159, metadata !504, metadata !448}
!604 = metadata !{metadata !605}
!605 = metadata !{i32 786468}                     ; [ DW_TAG_base_type ] [line 0, size 0, align 0, offset 0]
!606 = metadata !{i32 786478, i32 0, metadata !361, metadata !"basic_string", metadata !"basic_string", metadata !"", metadata !122, i32 484, metadata !607, i1 false, i1 false, i32 0, i32 0, null, i32 256, i1 true, null, null, i32 0, metadata !609, i32 484} ; [ DW_TAG_subprogram ] [line 484] [basic_string]
!607 = metadata !{i32 786453, i32 0, metadata !"", i32 0, i32 0, i64 0, i64 0, i64 0, i32 0, null, metadata !608, i32 0, i32 0} ; [ DW_TAG_subroutine_type ] [line 0, size 0, align 0, offset 0] [from ]
!608 = metadata !{null, metadata !474, metadata !159, metadata !448}
!609 = metadata !{metadata !610}
!610 = metadata !{i32 786468}                     ; [ DW_TAG_base_type ] [line 0, size 0, align 0, offset 0]
!611 = metadata !{i32 786478, i32 0, metadata !361, metadata !"basic_string", metadata !"basic_string", metadata !"", metadata !122, i32 491, metadata !612, i1 false, i1 false, i32 0, i32 0, null, i32 256, i1 true, null, null, i32 0, metadata !614, i32 491} ; [ DW_TAG_subprogram ] [line 491] [basic_string]
!612 = metadata !{i32 786453, i32 0, metadata !"", i32 0, i32 0, i64 0, i64 0, i64 0, i32 0, null, metadata !613, i32 0, i32 0} ; [ DW_TAG_subroutine_type ] [line 0, size 0, align 0, offset 0] [from ]
!613 = metadata !{null, metadata !474, metadata !504, metadata !161, metadata !448}
!614 = metadata !{metadata !615}
!615 = metadata !{i32 786468}                     ; [ DW_TAG_base_type ] [line 0, size 0, align 0, offset 0]
!616 = metadata !{i32 786478, i32 0, metadata !361, metadata !"~basic_string", metadata !"~basic_string", metadata !"", metadata !122, i32 532, metadata !497, i1 false, i1 false, i32 0, i32 0, null, i32 256, i1 true, null, null, i32 0, metadata !617, i32 532} ; [ DW_TAG_subprogram ] [line 532] [~basic_string]
!617 = metadata !{metadata !618}
!618 = metadata !{i32 786468}                     ; [ DW_TAG_base_type ] [line 0, size 0, align 0, offset 0]
!619 = metadata !{i32 786478, i32 0, metadata !361, metadata !"operator=", metadata !"operator=", metadata !"_ZNSsaSERKSs", metadata !122, i32 540, metadata !620, i1 false, i1 false, i32 0, i32 0, null, i32 256, i1 true, null, null, i32 0, metadata !623, i32 540} ; [ DW_TAG_subprogram ] [line 540] [operator=]
!620 = metadata !{i32 786453, i32 0, metadata !"", i32 0, i32 0, i64 0, i64 0, i64 0, i32 0, null, metadata !621, i32 0, i32 0} ; [ DW_TAG_subroutine_type ] [line 0, size 0, align 0, offset 0] [from ]
!621 = metadata !{metadata !622, metadata !474, metadata !588}
!622 = metadata !{i32 786448, null, null, null, i32 0, i64 0, i64 0, i64 0, i32 0, metadata !361} ; [ DW_TAG_reference_type ] [line 0, size 0, align 0, offset 0] [from basic_string<char>]
!623 = metadata !{metadata !624}
!624 = metadata !{i32 786468}                     ; [ DW_TAG_base_type ] [line 0, size 0, align 0, offset 0]
!625 = metadata !{i32 786478, i32 0, metadata !361, metadata !"operator=", metadata !"operator=", metadata !"_ZNSsaSEPKc", metadata !122, i32 548, metadata !626, i1 false, i1 false, i32 0, i32 0, null, i32 256, i1 true, null, null, i32 0, metadata !628, i32 548} ; [ DW_TAG_subprogram ] [line 548] [operator=]
!626 = metadata !{i32 786453, i32 0, metadata !"", i32 0, i32 0, i64 0, i64 0, i64 0, i32 0, null, metadata !627, i32 0, i32 0} ; [ DW_TAG_subroutine_type ] [line 0, size 0, align 0, offset 0] [from ]
!627 = metadata !{metadata !622, metadata !474, metadata !159}
!628 = metadata !{metadata !629}
!629 = metadata !{i32 786468}                     ; [ DW_TAG_base_type ] [line 0, size 0, align 0, offset 0]
!630 = metadata !{i32 786478, i32 0, metadata !361, metadata !"operator=", metadata !"operator=", metadata !"_ZNSsaSEc", metadata !122, i32 559, metadata !631, i1 false, i1 false, i32 0, i32 0, null, i32 256, i1 true, null, null, i32 0, metadata !633, i32 559} ; [ DW_TAG_subprogram ] [line 559] [operator=]
!631 = metadata !{i32 786453, i32 0, metadata !"", i32 0, i32 0, i64 0, i64 0, i64 0, i32 0, null, metadata !632, i32 0, i32 0} ; [ DW_TAG_subroutine_type ] [line 0, size 0, align 0, offset 0] [from ]
!632 = metadata !{metadata !622, metadata !474, metadata !161}
!633 = metadata !{metadata !634}
!634 = metadata !{i32 786468}                     ; [ DW_TAG_base_type ] [line 0, size 0, align 0, offset 0]
!635 = metadata !{i32 786478, i32 0, metadata !361, metadata !"begin", metadata !"begin", metadata !"_ZNSs5beginEv", metadata !122, i32 599, metadata !636, i1 false, i1 false, i32 0, i32 0, null, i32 256, i1 true, null, null, i32 0, metadata !638, i32 599} ; [ DW_TAG_subprogram ] [line 599] [begin]
!636 = metadata !{i32 786453, i32 0, metadata !"", i32 0, i32 0, i64 0, i64 0, i64 0, i32 0, null, metadata !637, i32 0, i32 0} ; [ DW_TAG_subroutine_type ] [line 0, size 0, align 0, offset 0] [from ]
!637 = metadata !{metadata !487, metadata !474}
!638 = metadata !{metadata !639}
!639 = metadata !{i32 786468}                     ; [ DW_TAG_base_type ] [line 0, size 0, align 0, offset 0]
!640 = metadata !{i32 786478, i32 0, metadata !361, metadata !"begin", metadata !"begin", metadata !"_ZNKSs5beginEv", metadata !122, i32 610, metadata !641, i1 false, i1 false, i32 0, i32 0, null, i32 256, i1 true, null, null, i32 0, metadata !643, i32 610} ; [ DW_TAG_subprogram ] [line 610] [begin]
!641 = metadata !{i32 786453, i32 0, metadata !"", i32 0, i32 0, i64 0, i64 0, i64 0, i32 0, null, metadata !642, i32 0, i32 0} ; [ DW_TAG_subroutine_type ] [line 0, size 0, align 0, offset 0] [from ]
!642 = metadata !{metadata !544, metadata !467}
!643 = metadata !{metadata !644}
!644 = metadata !{i32 786468}                     ; [ DW_TAG_base_type ] [line 0, size 0, align 0, offset 0]
!645 = metadata !{i32 786478, i32 0, metadata !361, metadata !"end", metadata !"end", metadata !"_ZNSs3endEv", metadata !122, i32 618, metadata !636, i1 false, i1 false, i32 0, i32 0, null, i32 256, i1 true, null, null, i32 0, metadata !646, i32 618} ; [ DW_TAG_subprogram ] [line 618] [end]
!646 = metadata !{metadata !647}
!647 = metadata !{i32 786468}                     ; [ DW_TAG_base_type ] [line 0, size 0, align 0, offset 0]
!648 = metadata !{i32 786478, i32 0, metadata !361, metadata !"end", metadata !"end", metadata !"_ZNKSs3endEv", metadata !122, i32 629, metadata !641, i1 false, i1 false, i32 0, i32 0, null, i32 256, i1 true, null, null, i32 0, metadata !649, i32 629} ; [ DW_TAG_subprogram ] [line 629] [end]
!649 = metadata !{metadata !650}
!650 = metadata !{i32 786468}                     ; [ DW_TAG_base_type ] [line 0, size 0, align 0, offset 0]
!651 = metadata !{i32 786478, i32 0, metadata !361, metadata !"rbegin", metadata !"rbegin", metadata !"_ZNSs6rbeginEv", metadata !122, i32 638, metadata !652, i1 false, i1 false, i32 0, i32 0, null, i32 256, i1 true, null, null, i32 0, metadata !657, i32 638} ; [ DW_TAG_subprogram ] [line 638] [rbegin]
!652 = metadata !{i32 786453, i32 0, metadata !"", i32 0, i32 0, i64 0, i64 0, i64 0, i32 0, null, metadata !653, i32 0, i32 0} ; [ DW_TAG_subroutine_type ] [line 0, size 0, align 0, offset 0] [from ]
!653 = metadata !{metadata !654, metadata !474}
!654 = metadata !{i32 786454, metadata !361, metadata !"reverse_iterator", metadata !362, i32 125, i64 0, i64 0, i64 0, i32 0, metadata !655} ; [ DW_TAG_typedef ] [reverse_iterator] [line 125, size 0, align 0, offset 0] [from reverse_iterator<__gnu_cxx::__normal_iterator<char *, std::basic_string<char> > >]
!655 = metadata !{i32 786434, metadata !656, metadata !"reverse_iterator<__gnu_cxx::__normal_iterator<char *, std::basic_string<char> > >", metadata !490, i32 97, i64 0, i64 0, i32 0, i32 4, null, null, i32 0} ; [ DW_TAG_class_type ] [reverse_iterator<__gnu_cxx::__normal_iterator<char *, std::basic_string<char> > >] [line 97, size 0, align 0, offset 0] [fwd] [from ]
!656 = metadata !{i32 786489, null, metadata !"std", metadata !490, i32 68} ; [ DW_TAG_namespace ] [/home/asit/AC-workdir/AxC-SVN-SHARED-REPO/axc/workloads/bodytrack-PARSEC/src/TrackingBenchmark//usr/lib/gcc/x86_64-redhat-linux/4.6.3/../../../../include/c++/4.6.3/bits/stl_iterator.h]
!657 = metadata !{metadata !658}
!658 = metadata !{i32 786468}                     ; [ DW_TAG_base_type ] [line 0, size 0, align 0, offset 0]
!659 = metadata !{i32 786478, i32 0, metadata !361, metadata !"rbegin", metadata !"rbegin", metadata !"_ZNKSs6rbeginEv", metadata !122, i32 647, metadata !660, i1 false, i1 false, i32 0, i32 0, null, i32 256, i1 true, null, null, i32 0, metadata !664, i32 647} ; [ DW_TAG_subprogram ] [line 647] [rbegin]
!660 = metadata !{i32 786453, i32 0, metadata !"", i32 0, i32 0, i64 0, i64 0, i64 0, i32 0, null, metadata !661, i32 0, i32 0} ; [ DW_TAG_subroutine_type ] [line 0, size 0, align 0, offset 0] [from ]
!661 = metadata !{metadata !662, metadata !467}
!662 = metadata !{i32 786454, metadata !361, metadata !"const_reverse_iterator", metadata !362, i32 124, i64 0, i64 0, i64 0, i32 0, metadata !663} ; [ DW_TAG_typedef ] [const_reverse_iterator] [line 124, size 0, align 0, offset 0] [from reverse_iterator<__gnu_cxx::__normal_iterator<const char *, std::basic_string<char> > >]
!663 = metadata !{i32 786434, metadata !656, metadata !"reverse_iterator<__gnu_cxx::__normal_iterator<const char *, std::basic_string<char> > >", metadata !490, i32 97, i64 0, i64 0, i32 0, i32 4, null, null, i32 0} ; [ DW_TAG_class_type ] [reverse_iterator<__gnu_cxx::__normal_iterator<const char *, std::basic_string<char> > >] [line 97, size 0, align 0, offset 0] [fwd] [from ]
!664 = metadata !{metadata !665}
!665 = metadata !{i32 786468}                     ; [ DW_TAG_base_type ] [line 0, size 0, align 0, offset 0]
!666 = metadata !{i32 786478, i32 0, metadata !361, metadata !"rend", metadata !"rend", metadata !"_ZNSs4rendEv", metadata !122, i32 656, metadata !652, i1 false, i1 false, i32 0, i32 0, null, i32 256, i1 true, null, null, i32 0, metadata !667, i32 656} ; [ DW_TAG_subprogram ] [line 656] [rend]
!667 = metadata !{metadata !668}
!668 = metadata !{i32 786468}                     ; [ DW_TAG_base_type ] [line 0, size 0, align 0, offset 0]
!669 = metadata !{i32 786478, i32 0, metadata !361, metadata !"rend", metadata !"rend", metadata !"_ZNKSs4rendEv", metadata !122, i32 665, metadata !660, i1 false, i1 false, i32 0, i32 0, null, i32 256, i1 true, null, null, i32 0, metadata !670, i32 665} ; [ DW_TAG_subprogram ] [line 665] [rend]
!670 = metadata !{metadata !671}
!671 = metadata !{i32 786468}                     ; [ DW_TAG_base_type ] [line 0, size 0, align 0, offset 0]
!672 = metadata !{i32 786478, i32 0, metadata !361, metadata !"size", metadata !"size", metadata !"_ZNKSs4sizeEv", metadata !122, i32 709, metadata !673, i1 false, i1 false, i32 0, i32 0, null, i32 256, i1 true, null, null, i32 0, metadata !675, i32 709} ; [ DW_TAG_subprogram ] [line 709] [size]
!673 = metadata !{i32 786453, i32 0, metadata !"", i32 0, i32 0, i64 0, i64 0, i64 0, i32 0, null, metadata !674, i32 0, i32 0} ; [ DW_TAG_subroutine_type ] [line 0, size 0, align 0, offset 0] [from ]
!674 = metadata !{metadata !504, metadata !467}
!675 = metadata !{metadata !676}
!676 = metadata !{i32 786468}                     ; [ DW_TAG_base_type ] [line 0, size 0, align 0, offset 0]
!677 = metadata !{i32 786478, i32 0, metadata !361, metadata !"length", metadata !"length", metadata !"_ZNKSs6lengthEv", metadata !122, i32 715, metadata !673, i1 false, i1 false, i32 0, i32 0, null, i32 256, i1 true, null, null, i32 0, metadata !678, i32 715} ; [ DW_TAG_subprogram ] [line 715] [length]
!678 = metadata !{metadata !679}
!679 = metadata !{i32 786468}                     ; [ DW_TAG_base_type ] [line 0, size 0, align 0, offset 0]
!680 = metadata !{i32 786478, i32 0, metadata !361, metadata !"max_size", metadata !"max_size", metadata !"_ZNKSs8max_sizeEv", metadata !122, i32 720, metadata !673, i1 false, i1 false, i32 0, i32 0, null, i32 256, i1 true, null, null, i32 0, metadata !681, i32 720} ; [ DW_TAG_subprogram ] [line 720] [max_size]
!681 = metadata !{metadata !682}
!682 = metadata !{i32 786468}                     ; [ DW_TAG_base_type ] [line 0, size 0, align 0, offset 0]
!683 = metadata !{i32 786478, i32 0, metadata !361, metadata !"resize", metadata !"resize", metadata !"_ZNSs6resizeEmc", metadata !122, i32 734, metadata !684, i1 false, i1 false, i32 0, i32 0, null, i32 256, i1 true, null, null, i32 0, metadata !686, i32 734} ; [ DW_TAG_subprogram ] [line 734] [resize]
!684 = metadata !{i32 786453, i32 0, metadata !"", i32 0, i32 0, i64 0, i64 0, i64 0, i32 0, null, metadata !685, i32 0, i32 0} ; [ DW_TAG_subroutine_type ] [line 0, size 0, align 0, offset 0] [from ]
!685 = metadata !{null, metadata !474, metadata !504, metadata !161}
!686 = metadata !{metadata !687}
!687 = metadata !{i32 786468}                     ; [ DW_TAG_base_type ] [line 0, size 0, align 0, offset 0]
!688 = metadata !{i32 786478, i32 0, metadata !361, metadata !"resize", metadata !"resize", metadata !"_ZNSs6resizeEm", metadata !122, i32 747, metadata !689, i1 false, i1 false, i32 0, i32 0, null, i32 256, i1 true, null, null, i32 0, metadata !691, i32 747} ; [ DW_TAG_subprogram ] [line 747] [resize]
!689 = metadata !{i32 786453, i32 0, metadata !"", i32 0, i32 0, i64 0, i64 0, i64 0, i32 0, null, metadata !690, i32 0, i32 0} ; [ DW_TAG_subroutine_type ] [line 0, size 0, align 0, offset 0] [from ]
!690 = metadata !{null, metadata !474, metadata !504}
!691 = metadata !{metadata !692}
!692 = metadata !{i32 786468}                     ; [ DW_TAG_base_type ] [line 0, size 0, align 0, offset 0]
!693 = metadata !{i32 786478, i32 0, metadata !361, metadata !"capacity", metadata !"capacity", metadata !"_ZNKSs8capacityEv", metadata !122, i32 767, metadata !673, i1 false, i1 false, i32 0, i32 0, null, i32 256, i1 true, null, null, i32 0, metadata !694, i32 767} ; [ DW_TAG_subprogram ] [line 767] [capacity]
!694 = metadata !{metadata !695}
!695 = metadata !{i32 786468}                     ; [ DW_TAG_base_type ] [line 0, size 0, align 0, offset 0]
!696 = metadata !{i32 786478, i32 0, metadata !361, metadata !"reserve", metadata !"reserve", metadata !"_ZNSs7reserveEm", metadata !122, i32 788, metadata !689, i1 false, i1 false, i32 0, i32 0, null, i32 256, i1 true, null, null, i32 0, metadata !697, i32 788} ; [ DW_TAG_subprogram ] [line 788] [reserve]
!697 = metadata !{metadata !698}
!698 = metadata !{i32 786468}                     ; [ DW_TAG_base_type ] [line 0, size 0, align 0, offset 0]
!699 = metadata !{i32 786478, i32 0, metadata !361, metadata !"clear", metadata !"clear", metadata !"_ZNSs5clearEv", metadata !122, i32 794, metadata !497, i1 false, i1 false, i32 0, i32 0, null, i32 256, i1 true, null, null, i32 0, metadata !700, i32 794} ; [ DW_TAG_subprogram ] [line 794] [clear]
!700 = metadata !{metadata !701}
!701 = metadata !{i32 786468}                     ; [ DW_TAG_base_type ] [line 0, size 0, align 0, offset 0]
!702 = metadata !{i32 786478, i32 0, metadata !361, metadata !"empty", metadata !"empty", metadata !"_ZNKSs5emptyEv", metadata !122, i32 802, metadata !703, i1 false, i1 false, i32 0, i32 0, null, i32 256, i1 true, null, null, i32 0, metadata !705, i32 802} ; [ DW_TAG_subprogram ] [line 802] [empty]
!703 = metadata !{i32 786453, i32 0, metadata !"", i32 0, i32 0, i64 0, i64 0, i64 0, i32 0, null, metadata !704, i32 0, i32 0} ; [ DW_TAG_subroutine_type ] [line 0, size 0, align 0, offset 0] [from ]
!704 = metadata !{metadata !257, metadata !467}
!705 = metadata !{metadata !706}
!706 = metadata !{i32 786468}                     ; [ DW_TAG_base_type ] [line 0, size 0, align 0, offset 0]
!707 = metadata !{i32 786478, i32 0, metadata !361, metadata !"operator[]", metadata !"operator[]", metadata !"_ZNKSsixEm", metadata !122, i32 817, metadata !708, i1 false, i1 false, i32 0, i32 0, null, i32 256, i1 true, null, null, i32 0, metadata !712, i32 817} ; [ DW_TAG_subprogram ] [line 817] [operator[]]
!708 = metadata !{i32 786453, i32 0, metadata !"", i32 0, i32 0, i64 0, i64 0, i64 0, i32 0, null, metadata !709, i32 0, i32 0} ; [ DW_TAG_subroutine_type ] [line 0, size 0, align 0, offset 0] [from ]
!709 = metadata !{metadata !710, metadata !467, metadata !504}
!710 = metadata !{i32 786454, metadata !361, metadata !"const_reference", metadata !362, i32 118, i64 0, i64 0, i64 0, i32 0, metadata !711} ; [ DW_TAG_typedef ] [const_reference] [line 118, size 0, align 0, offset 0] [from const_reference]
!711 = metadata !{i32 786454, metadata !368, metadata !"const_reference", metadata !362, i32 100, i64 0, i64 0, i64 0, i32 0, metadata !406} ; [ DW_TAG_typedef ] [const_reference] [line 100, size 0, align 0, offset 0] [from ]
!712 = metadata !{metadata !713}
!713 = metadata !{i32 786468}                     ; [ DW_TAG_base_type ] [line 0, size 0, align 0, offset 0]
!714 = metadata !{i32 786478, i32 0, metadata !361, metadata !"operator[]", metadata !"operator[]", metadata !"_ZNSsixEm", metadata !122, i32 834, metadata !715, i1 false, i1 false, i32 0, i32 0, null, i32 256, i1 true, null, null, i32 0, metadata !719, i32 834} ; [ DW_TAG_subprogram ] [line 834] [operator[]]
!715 = metadata !{i32 786453, i32 0, metadata !"", i32 0, i32 0, i64 0, i64 0, i64 0, i32 0, null, metadata !716, i32 0, i32 0} ; [ DW_TAG_subroutine_type ] [line 0, size 0, align 0, offset 0] [from ]
!716 = metadata !{metadata !717, metadata !474, metadata !504}
!717 = metadata !{i32 786454, metadata !361, metadata !"reference", metadata !362, i32 117, i64 0, i64 0, i64 0, i32 0, metadata !718} ; [ DW_TAG_typedef ] [reference] [line 117, size 0, align 0, offset 0] [from reference]
!718 = metadata !{i32 786454, metadata !368, metadata !"reference", metadata !362, i32 99, i64 0, i64 0, i64 0, i32 0, metadata !398} ; [ DW_TAG_typedef ] [reference] [line 99, size 0, align 0, offset 0] [from ]
!719 = metadata !{metadata !720}
!720 = metadata !{i32 786468}                     ; [ DW_TAG_base_type ] [line 0, size 0, align 0, offset 0]
!721 = metadata !{i32 786478, i32 0, metadata !361, metadata !"at", metadata !"at", metadata !"_ZNKSs2atEm", metadata !122, i32 855, metadata !708, i1 false, i1 false, i32 0, i32 0, null, i32 256, i1 true, null, null, i32 0, metadata !722, i32 855} ; [ DW_TAG_subprogram ] [line 855] [at]
!722 = metadata !{metadata !723}
!723 = metadata !{i32 786468}                     ; [ DW_TAG_base_type ] [line 0, size 0, align 0, offset 0]
!724 = metadata !{i32 786478, i32 0, metadata !361, metadata !"at", metadata !"at", metadata !"_ZNSs2atEm", metadata !122, i32 908, metadata !715, i1 false, i1 false, i32 0, i32 0, null, i32 256, i1 true, null, null, i32 0, metadata !725, i32 908} ; [ DW_TAG_subprogram ] [line 908] [at]
!725 = metadata !{metadata !726}
!726 = metadata !{i32 786468}                     ; [ DW_TAG_base_type ] [line 0, size 0, align 0, offset 0]
!727 = metadata !{i32 786478, i32 0, metadata !361, metadata !"operator+=", metadata !"operator+=", metadata !"_ZNSspLERKSs", metadata !122, i32 923, metadata !620, i1 false, i1 false, i32 0, i32 0, null, i32 256, i1 true, null, null, i32 0, metadata !728, i32 923} ; [ DW_TAG_subprogram ] [line 923] [operator+=]
!728 = metadata !{metadata !729}
!729 = metadata !{i32 786468}                     ; [ DW_TAG_base_type ] [line 0, size 0, align 0, offset 0]
!730 = metadata !{i32 786478, i32 0, metadata !361, metadata !"operator+=", metadata !"operator+=", metadata !"_ZNSspLEPKc", metadata !122, i32 932, metadata !626, i1 false, i1 false, i32 0, i32 0, null, i32 256, i1 true, null, null, i32 0, metadata !731, i32 932} ; [ DW_TAG_subprogram ] [line 932] [operator+=]
!731 = metadata !{metadata !732}
!732 = metadata !{i32 786468}                     ; [ DW_TAG_base_type ] [line 0, size 0, align 0, offset 0]
!733 = metadata !{i32 786478, i32 0, metadata !361, metadata !"operator+=", metadata !"operator+=", metadata !"_ZNSspLEc", metadata !122, i32 941, metadata !631, i1 false, i1 false, i32 0, i32 0, null, i32 256, i1 true, null, null, i32 0, metadata !734, i32 941} ; [ DW_TAG_subprogram ] [line 941] [operator+=]
!734 = metadata !{metadata !735}
!735 = metadata !{i32 786468}                     ; [ DW_TAG_base_type ] [line 0, size 0, align 0, offset 0]
!736 = metadata !{i32 786478, i32 0, metadata !361, metadata !"append", metadata !"append", metadata !"_ZNSs6appendERKSs", metadata !122, i32 964, metadata !620, i1 false, i1 false, i32 0, i32 0, null, i32 256, i1 true, null, null, i32 0, metadata !737, i32 964} ; [ DW_TAG_subprogram ] [line 964] [append]
!737 = metadata !{metadata !738}
!738 = metadata !{i32 786468}                     ; [ DW_TAG_base_type ] [line 0, size 0, align 0, offset 0]
!739 = metadata !{i32 786478, i32 0, metadata !361, metadata !"append", metadata !"append", metadata !"_ZNSs6appendERKSsmm", metadata !122, i32 979, metadata !740, i1 false, i1 false, i32 0, i32 0, null, i32 256, i1 true, null, null, i32 0, metadata !742, i32 979} ; [ DW_TAG_subprogram ] [line 979] [append]
!740 = metadata !{i32 786453, i32 0, metadata !"", i32 0, i32 0, i64 0, i64 0, i64 0, i32 0, null, metadata !741, i32 0, i32 0} ; [ DW_TAG_subroutine_type ] [line 0, size 0, align 0, offset 0] [from ]
!741 = metadata !{metadata !622, metadata !474, metadata !588, metadata !504, metadata !504}
!742 = metadata !{metadata !743}
!743 = metadata !{i32 786468}                     ; [ DW_TAG_base_type ] [line 0, size 0, align 0, offset 0]
!744 = metadata !{i32 786478, i32 0, metadata !361, metadata !"append", metadata !"append", metadata !"_ZNSs6appendEPKcm", metadata !122, i32 988, metadata !745, i1 false, i1 false, i32 0, i32 0, null, i32 256, i1 true, null, null, i32 0, metadata !747, i32 988} ; [ DW_TAG_subprogram ] [line 988] [append]
!745 = metadata !{i32 786453, i32 0, metadata !"", i32 0, i32 0, i64 0, i64 0, i64 0, i32 0, null, metadata !746, i32 0, i32 0} ; [ DW_TAG_subroutine_type ] [line 0, size 0, align 0, offset 0] [from ]
!746 = metadata !{metadata !622, metadata !474, metadata !159, metadata !504}
!747 = metadata !{metadata !748}
!748 = metadata !{i32 786468}                     ; [ DW_TAG_base_type ] [line 0, size 0, align 0, offset 0]
!749 = metadata !{i32 786478, i32 0, metadata !361, metadata !"append", metadata !"append", metadata !"_ZNSs6appendEPKc", metadata !122, i32 996, metadata !626, i1 false, i1 false, i32 0, i32 0, null, i32 256, i1 true, null, null, i32 0, metadata !750, i32 996} ; [ DW_TAG_subprogram ] [line 996] [append]
!750 = metadata !{metadata !751}
!751 = metadata !{i32 786468}                     ; [ DW_TAG_base_type ] [line 0, size 0, align 0, offset 0]
!752 = metadata !{i32 786478, i32 0, metadata !361, metadata !"append", metadata !"append", metadata !"_ZNSs6appendEmc", metadata !122, i32 1011, metadata !753, i1 false, i1 false, i32 0, i32 0, null, i32 256, i1 true, null, null, i32 0, metadata !755, i32 1011} ; [ DW_TAG_subprogram ] [line 1011] [append]
!753 = metadata !{i32 786453, i32 0, metadata !"", i32 0, i32 0, i64 0, i64 0, i64 0, i32 0, null, metadata !754, i32 0, i32 0} ; [ DW_TAG_subroutine_type ] [line 0, size 0, align 0, offset 0] [from ]
!754 = metadata !{metadata !622, metadata !474, metadata !504, metadata !161}
!755 = metadata !{metadata !756}
!756 = metadata !{i32 786468}                     ; [ DW_TAG_base_type ] [line 0, size 0, align 0, offset 0]
!757 = metadata !{i32 786478, i32 0, metadata !361, metadata !"push_back", metadata !"push_back", metadata !"_ZNSs9push_backEc", metadata !122, i32 1042, metadata !758, i1 false, i1 false, i32 0, i32 0, null, i32 256, i1 true, null, null, i32 0, metadata !760, i32 1042} ; [ DW_TAG_subprogram ] [line 1042] [push_back]
!758 = metadata !{i32 786453, i32 0, metadata !"", i32 0, i32 0, i64 0, i64 0, i64 0, i32 0, null, metadata !759, i32 0, i32 0} ; [ DW_TAG_subroutine_type ] [line 0, size 0, align 0, offset 0] [from ]
!759 = metadata !{null, metadata !474, metadata !161}
!760 = metadata !{metadata !761}
!761 = metadata !{i32 786468}                     ; [ DW_TAG_base_type ] [line 0, size 0, align 0, offset 0]
!762 = metadata !{i32 786478, i32 0, metadata !361, metadata !"assign", metadata !"assign", metadata !"_ZNSs6assignERKSs", metadata !122, i32 1057, metadata !620, i1 false, i1 false, i32 0, i32 0, null, i32 256, i1 true, null, null, i32 0, metadata !763, i32 1057} ; [ DW_TAG_subprogram ] [line 1057] [assign]
!763 = metadata !{metadata !764}
!764 = metadata !{i32 786468}                     ; [ DW_TAG_base_type ] [line 0, size 0, align 0, offset 0]
!765 = metadata !{i32 786478, i32 0, metadata !361, metadata !"assign", metadata !"assign", metadata !"_ZNSs6assignERKSsmm", metadata !122, i32 1089, metadata !740, i1 false, i1 false, i32 0, i32 0, null, i32 256, i1 true, null, null, i32 0, metadata !766, i32 1089} ; [ DW_TAG_subprogram ] [line 1089] [assign]
!766 = metadata !{metadata !767}
!767 = metadata !{i32 786468}                     ; [ DW_TAG_base_type ] [line 0, size 0, align 0, offset 0]
!768 = metadata !{i32 786478, i32 0, metadata !361, metadata !"assign", metadata !"assign", metadata !"_ZNSs6assignEPKcm", metadata !122, i32 1105, metadata !745, i1 false, i1 false, i32 0, i32 0, null, i32 256, i1 true, null, null, i32 0, metadata !769, i32 1105} ; [ DW_TAG_subprogram ] [line 1105] [assign]
!769 = metadata !{metadata !770}
!770 = metadata !{i32 786468}                     ; [ DW_TAG_base_type ] [line 0, size 0, align 0, offset 0]
!771 = metadata !{i32 786478, i32 0, metadata !361, metadata !"assign", metadata !"assign", metadata !"_ZNSs6assignEPKc", metadata !122, i32 1117, metadata !626, i1 false, i1 false, i32 0, i32 0, null, i32 256, i1 true, null, null, i32 0, metadata !772, i32 1117} ; [ DW_TAG_subprogram ] [line 1117] [assign]
!772 = metadata !{metadata !773}
!773 = metadata !{i32 786468}                     ; [ DW_TAG_base_type ] [line 0, size 0, align 0, offset 0]
!774 = metadata !{i32 786478, i32 0, metadata !361, metadata !"assign", metadata !"assign", metadata !"_ZNSs6assignEmc", metadata !122, i32 1133, metadata !753, i1 false, i1 false, i32 0, i32 0, null, i32 256, i1 true, null, null, i32 0, metadata !775, i32 1133} ; [ DW_TAG_subprogram ] [line 1133] [assign]
!775 = metadata !{metadata !776}
!776 = metadata !{i32 786468}                     ; [ DW_TAG_base_type ] [line 0, size 0, align 0, offset 0]
!777 = metadata !{i32 786478, i32 0, metadata !361, metadata !"insert", metadata !"insert", metadata !"_ZNSs6insertEN9__gnu_cxx17__normal_iteratorIPcSsEEmc", metadata !122, i32 1173, metadata !778, i1 false, i1 false, i32 0, i32 0, null, i32 256, i1 true, null, null, i32 0, metadata !780, i32 1173} ; [ DW_TAG_subprogram ] [line 1173] [insert]
!778 = metadata !{i32 786453, i32 0, metadata !"", i32 0, i32 0, i64 0, i64 0, i64 0, i32 0, null, metadata !779, i32 0, i32 0} ; [ DW_TAG_subroutine_type ] [line 0, size 0, align 0, offset 0] [from ]
!779 = metadata !{null, metadata !474, metadata !487, metadata !504, metadata !161}
!780 = metadata !{metadata !781}
!781 = metadata !{i32 786468}                     ; [ DW_TAG_base_type ] [line 0, size 0, align 0, offset 0]
!782 = metadata !{i32 786478, i32 0, metadata !361, metadata !"insert", metadata !"insert", metadata !"_ZNSs6insertEmRKSs", metadata !122, i32 1219, metadata !783, i1 false, i1 false, i32 0, i32 0, null, i32 256, i1 true, null, null, i32 0, metadata !785, i32 1219} ; [ DW_TAG_subprogram ] [line 1219] [insert]
!783 = metadata !{i32 786453, i32 0, metadata !"", i32 0, i32 0, i64 0, i64 0, i64 0, i32 0, null, metadata !784, i32 0, i32 0} ; [ DW_TAG_subroutine_type ] [line 0, size 0, align 0, offset 0] [from ]
!784 = metadata !{metadata !622, metadata !474, metadata !504, metadata !588}
!785 = metadata !{metadata !786}
!786 = metadata !{i32 786468}                     ; [ DW_TAG_base_type ] [line 0, size 0, align 0, offset 0]
!787 = metadata !{i32 786478, i32 0, metadata !361, metadata !"insert", metadata !"insert", metadata !"_ZNSs6insertEmRKSsmm", metadata !122, i32 1241, metadata !788, i1 false, i1 false, i32 0, i32 0, null, i32 256, i1 true, null, null, i32 0, metadata !790, i32 1241} ; [ DW_TAG_subprogram ] [line 1241] [insert]
!788 = metadata !{i32 786453, i32 0, metadata !"", i32 0, i32 0, i64 0, i64 0, i64 0, i32 0, null, metadata !789, i32 0, i32 0} ; [ DW_TAG_subroutine_type ] [line 0, size 0, align 0, offset 0] [from ]
!789 = metadata !{metadata !622, metadata !474, metadata !504, metadata !588, metadata !504, metadata !504}
!790 = metadata !{metadata !791}
!791 = metadata !{i32 786468}                     ; [ DW_TAG_base_type ] [line 0, size 0, align 0, offset 0]
!792 = metadata !{i32 786478, i32 0, metadata !361, metadata !"insert", metadata !"insert", metadata !"_ZNSs6insertEmPKcm", metadata !122, i32 1264, metadata !793, i1 false, i1 false, i32 0, i32 0, null, i32 256, i1 true, null, null, i32 0, metadata !795, i32 1264} ; [ DW_TAG_subprogram ] [line 1264] [insert]
!793 = metadata !{i32 786453, i32 0, metadata !"", i32 0, i32 0, i64 0, i64 0, i64 0, i32 0, null, metadata !794, i32 0, i32 0} ; [ DW_TAG_subroutine_type ] [line 0, size 0, align 0, offset 0] [from ]
!794 = metadata !{metadata !622, metadata !474, metadata !504, metadata !159, metadata !504}
!795 = metadata !{metadata !796}
!796 = metadata !{i32 786468}                     ; [ DW_TAG_base_type ] [line 0, size 0, align 0, offset 0]
!797 = metadata !{i32 786478, i32 0, metadata !361, metadata !"insert", metadata !"insert", metadata !"_ZNSs6insertEmPKc", metadata !122, i32 1282, metadata !798, i1 false, i1 false, i32 0, i32 0, null, i32 256, i1 true, null, null, i32 0, metadata !800, i32 1282} ; [ DW_TAG_subprogram ] [line 1282] [insert]
!798 = metadata !{i32 786453, i32 0, metadata !"", i32 0, i32 0, i64 0, i64 0, i64 0, i32 0, null, metadata !799, i32 0, i32 0} ; [ DW_TAG_subroutine_type ] [line 0, size 0, align 0, offset 0] [from ]
!799 = metadata !{metadata !622, metadata !474, metadata !504, metadata !159}
!800 = metadata !{metadata !801}
!801 = metadata !{i32 786468}                     ; [ DW_TAG_base_type ] [line 0, size 0, align 0, offset 0]
!802 = metadata !{i32 786478, i32 0, metadata !361, metadata !"insert", metadata !"insert", metadata !"_ZNSs6insertEmmc", metadata !122, i32 1305, metadata !803, i1 false, i1 false, i32 0, i32 0, null, i32 256, i1 true, null, null, i32 0, metadata !805, i32 1305} ; [ DW_TAG_subprogram ] [line 1305] [insert]
!803 = metadata !{i32 786453, i32 0, metadata !"", i32 0, i32 0, i64 0, i64 0, i64 0, i32 0, null, metadata !804, i32 0, i32 0} ; [ DW_TAG_subroutine_type ] [line 0, size 0, align 0, offset 0] [from ]
!804 = metadata !{metadata !622, metadata !474, metadata !504, metadata !504, metadata !161}
!805 = metadata !{metadata !806}
!806 = metadata !{i32 786468}                     ; [ DW_TAG_base_type ] [line 0, size 0, align 0, offset 0]
!807 = metadata !{i32 786478, i32 0, metadata !361, metadata !"insert", metadata !"insert", metadata !"_ZNSs6insertEN9__gnu_cxx17__normal_iteratorIPcSsEEc", metadata !122, i32 1322, metadata !808, i1 false, i1 false, i32 0, i32 0, null, i32 256, i1 true, null, null, i32 0, metadata !810, i32 1322} ; [ DW_TAG_subprogram ] [line 1322] [insert]
!808 = metadata !{i32 786453, i32 0, metadata !"", i32 0, i32 0, i64 0, i64 0, i64 0, i32 0, null, metadata !809, i32 0, i32 0} ; [ DW_TAG_subroutine_type ] [line 0, size 0, align 0, offset 0] [from ]
!809 = metadata !{metadata !487, metadata !474, metadata !487, metadata !161}
!810 = metadata !{metadata !811}
!811 = metadata !{i32 786468}                     ; [ DW_TAG_base_type ] [line 0, size 0, align 0, offset 0]
!812 = metadata !{i32 786478, i32 0, metadata !361, metadata !"erase", metadata !"erase", metadata !"_ZNSs5eraseEmm", metadata !122, i32 1346, metadata !813, i1 false, i1 false, i32 0, i32 0, null, i32 256, i1 true, null, null, i32 0, metadata !815, i32 1346} ; [ DW_TAG_subprogram ] [line 1346] [erase]
!813 = metadata !{i32 786453, i32 0, metadata !"", i32 0, i32 0, i64 0, i64 0, i64 0, i32 0, null, metadata !814, i32 0, i32 0} ; [ DW_TAG_subroutine_type ] [line 0, size 0, align 0, offset 0] [from ]
!814 = metadata !{metadata !622, metadata !474, metadata !504, metadata !504}
!815 = metadata !{metadata !816}
!816 = metadata !{i32 786468}                     ; [ DW_TAG_base_type ] [line 0, size 0, align 0, offset 0]
!817 = metadata !{i32 786478, i32 0, metadata !361, metadata !"erase", metadata !"erase", metadata !"_ZNSs5eraseEN9__gnu_cxx17__normal_iteratorIPcSsEE", metadata !122, i32 1362, metadata !818, i1 false, i1 false, i32 0, i32 0, null, i32 256, i1 true, null, null, i32 0, metadata !820, i32 1362} ; [ DW_TAG_subprogram ] [line 1362] [erase]
!818 = metadata !{i32 786453, i32 0, metadata !"", i32 0, i32 0, i64 0, i64 0, i64 0, i32 0, null, metadata !819, i32 0, i32 0} ; [ DW_TAG_subroutine_type ] [line 0, size 0, align 0, offset 0] [from ]
!819 = metadata !{metadata !487, metadata !474, metadata !487}
!820 = metadata !{metadata !821}
!821 = metadata !{i32 786468}                     ; [ DW_TAG_base_type ] [line 0, size 0, align 0, offset 0]
!822 = metadata !{i32 786478, i32 0, metadata !361, metadata !"erase", metadata !"erase", metadata !"_ZNSs5eraseEN9__gnu_cxx17__normal_iteratorIPcSsEES2_", metadata !122, i32 1382, metadata !823, i1 false, i1 false, i32 0, i32 0, null, i32 256, i1 true, null, null, i32 0, metadata !825, i32 1382} ; [ DW_TAG_subprogram ] [line 1382] [erase]
!823 = metadata !{i32 786453, i32 0, metadata !"", i32 0, i32 0, i64 0, i64 0, i64 0, i32 0, null, metadata !824, i32 0, i32 0} ; [ DW_TAG_subroutine_type ] [line 0, size 0, align 0, offset 0] [from ]
!824 = metadata !{metadata !487, metadata !474, metadata !487, metadata !487}
!825 = metadata !{metadata !826}
!826 = metadata !{i32 786468}                     ; [ DW_TAG_base_type ] [line 0, size 0, align 0, offset 0]
!827 = metadata !{i32 786478, i32 0, metadata !361, metadata !"replace", metadata !"replace", metadata !"_ZNSs7replaceEmmRKSs", metadata !122, i32 1401, metadata !828, i1 false, i1 false, i32 0, i32 0, null, i32 256, i1 true, null, null, i32 0, metadata !830, i32 1401} ; [ DW_TAG_subprogram ] [line 1401] [replace]
!828 = metadata !{i32 786453, i32 0, metadata !"", i32 0, i32 0, i64 0, i64 0, i64 0, i32 0, null, metadata !829, i32 0, i32 0} ; [ DW_TAG_subroutine_type ] [line 0, size 0, align 0, offset 0] [from ]
!829 = metadata !{metadata !622, metadata !474, metadata !504, metadata !504, metadata !588}
!830 = metadata !{metadata !831}
!831 = metadata !{i32 786468}                     ; [ DW_TAG_base_type ] [line 0, size 0, align 0, offset 0]
!832 = metadata !{i32 786478, i32 0, metadata !361, metadata !"replace", metadata !"replace", metadata !"_ZNSs7replaceEmmRKSsmm", metadata !122, i32 1423, metadata !833, i1 false, i1 false, i32 0, i32 0, null, i32 256, i1 true, null, null, i32 0, metadata !835, i32 1423} ; [ DW_TAG_subprogram ] [line 1423] [replace]
!833 = metadata !{i32 786453, i32 0, metadata !"", i32 0, i32 0, i64 0, i64 0, i64 0, i32 0, null, metadata !834, i32 0, i32 0} ; [ DW_TAG_subroutine_type ] [line 0, size 0, align 0, offset 0] [from ]
!834 = metadata !{metadata !622, metadata !474, metadata !504, metadata !504, metadata !588, metadata !504, metadata !504}
!835 = metadata !{metadata !836}
!836 = metadata !{i32 786468}                     ; [ DW_TAG_base_type ] [line 0, size 0, align 0, offset 0]
!837 = metadata !{i32 786478, i32 0, metadata !361, metadata !"replace", metadata !"replace", metadata !"_ZNSs7replaceEmmPKcm", metadata !122, i32 1447, metadata !838, i1 false, i1 false, i32 0, i32 0, null, i32 256, i1 true, null, null, i32 0, metadata !840, i32 1447} ; [ DW_TAG_subprogram ] [line 1447] [replace]
!838 = metadata !{i32 786453, i32 0, metadata !"", i32 0, i32 0, i64 0, i64 0, i64 0, i32 0, null, metadata !839, i32 0, i32 0} ; [ DW_TAG_subroutine_type ] [line 0, size 0, align 0, offset 0] [from ]
!839 = metadata !{metadata !622, metadata !474, metadata !504, metadata !504, metadata !159, metadata !504}
!840 = metadata !{metadata !841}
!841 = metadata !{i32 786468}                     ; [ DW_TAG_base_type ] [line 0, size 0, align 0, offset 0]
!842 = metadata !{i32 786478, i32 0, metadata !361, metadata !"replace", metadata !"replace", metadata !"_ZNSs7replaceEmmPKc", metadata !122, i32 1466, metadata !843, i1 false, i1 false, i32 0, i32 0, null, i32 256, i1 true, null, null, i32 0, metadata !845, i32 1466} ; [ DW_TAG_subprogram ] [line 1466] [replace]
!843 = metadata !{i32 786453, i32 0, metadata !"", i32 0, i32 0, i64 0, i64 0, i64 0, i32 0, null, metadata !844, i32 0, i32 0} ; [ DW_TAG_subroutine_type ] [line 0, size 0, align 0, offset 0] [from ]
!844 = metadata !{metadata !622, metadata !474, metadata !504, metadata !504, metadata !159}
!845 = metadata !{metadata !846}
!846 = metadata !{i32 786468}                     ; [ DW_TAG_base_type ] [line 0, size 0, align 0, offset 0]
!847 = metadata !{i32 786478, i32 0, metadata !361, metadata !"replace", metadata !"replace", metadata !"_ZNSs7replaceEmmmc", metadata !122, i32 1489, metadata !848, i1 false, i1 false, i32 0, i32 0, null, i32 256, i1 true, null, null, i32 0, metadata !850, i32 1489} ; [ DW_TAG_subprogram ] [line 1489] [replace]
!848 = metadata !{i32 786453, i32 0, metadata !"", i32 0, i32 0, i64 0, i64 0, i64 0, i32 0, null, metadata !849, i32 0, i32 0} ; [ DW_TAG_subroutine_type ] [line 0, size 0, align 0, offset 0] [from ]
!849 = metadata !{metadata !622, metadata !474, metadata !504, metadata !504, metadata !504, metadata !161}
!850 = metadata !{metadata !851}
!851 = metadata !{i32 786468}                     ; [ DW_TAG_base_type ] [line 0, size 0, align 0, offset 0]
!852 = metadata !{i32 786478, i32 0, metadata !361, metadata !"replace", metadata !"replace", metadata !"_ZNSs7replaceEN9__gnu_cxx17__normal_iteratorIPcSsEES2_RKSs", metadata !122, i32 1507, metadata !853, i1 false, i1 false, i32 0, i32 0, null, i32 256, i1 true, null, null, i32 0, metadata !855, i32 1507} ; [ DW_TAG_subprogram ] [line 1507] [replace]
!853 = metadata !{i32 786453, i32 0, metadata !"", i32 0, i32 0, i64 0, i64 0, i64 0, i32 0, null, metadata !854, i32 0, i32 0} ; [ DW_TAG_subroutine_type ] [line 0, size 0, align 0, offset 0] [from ]
!854 = metadata !{metadata !622, metadata !474, metadata !487, metadata !487, metadata !588}
!855 = metadata !{metadata !856}
!856 = metadata !{i32 786468}                     ; [ DW_TAG_base_type ] [line 0, size 0, align 0, offset 0]
!857 = metadata !{i32 786478, i32 0, metadata !361, metadata !"replace", metadata !"replace", metadata !"_ZNSs7replaceEN9__gnu_cxx17__normal_iteratorIPcSsEES2_PKcm", metadata !122, i32 1525, metadata !858, i1 false, i1 false, i32 0, i32 0, null, i32 256, i1 true, null, null, i32 0, metadata !860, i32 1525} ; [ DW_TAG_subprogram ] [line 1525] [replace]
!858 = metadata !{i32 786453, i32 0, metadata !"", i32 0, i32 0, i64 0, i64 0, i64 0, i32 0, null, metadata !859, i32 0, i32 0} ; [ DW_TAG_subroutine_type ] [line 0, size 0, align 0, offset 0] [from ]
!859 = metadata !{metadata !622, metadata !474, metadata !487, metadata !487, metadata !159, metadata !504}
!860 = metadata !{metadata !861}
!861 = metadata !{i32 786468}                     ; [ DW_TAG_base_type ] [line 0, size 0, align 0, offset 0]
!862 = metadata !{i32 786478, i32 0, metadata !361, metadata !"replace", metadata !"replace", metadata !"_ZNSs7replaceEN9__gnu_cxx17__normal_iteratorIPcSsEES2_PKc", metadata !122, i32 1546, metadata !863, i1 false, i1 false, i32 0, i32 0, null, i32 256, i1 true, null, null, i32 0, metadata !865, i32 1546} ; [ DW_TAG_subprogram ] [line 1546] [replace]
!863 = metadata !{i32 786453, i32 0, metadata !"", i32 0, i32 0, i64 0, i64 0, i64 0, i32 0, null, metadata !864, i32 0, i32 0} ; [ DW_TAG_subroutine_type ] [line 0, size 0, align 0, offset 0] [from ]
!864 = metadata !{metadata !622, metadata !474, metadata !487, metadata !487, metadata !159}
!865 = metadata !{metadata !866}
!866 = metadata !{i32 786468}                     ; [ DW_TAG_base_type ] [line 0, size 0, align 0, offset 0]
!867 = metadata !{i32 786478, i32 0, metadata !361, metadata !"replace", metadata !"replace", metadata !"_ZNSs7replaceEN9__gnu_cxx17__normal_iteratorIPcSsEES2_mc", metadata !122, i32 1567, metadata !868, i1 false, i1 false, i32 0, i32 0, null, i32 256, i1 true, null, null, i32 0, metadata !870, i32 1567} ; [ DW_TAG_subprogram ] [line 1567] [replace]
!868 = metadata !{i32 786453, i32 0, metadata !"", i32 0, i32 0, i64 0, i64 0, i64 0, i32 0, null, metadata !869, i32 0, i32 0} ; [ DW_TAG_subroutine_type ] [line 0, size 0, align 0, offset 0] [from ]
!869 = metadata !{metadata !622, metadata !474, metadata !487, metadata !487, metadata !504, metadata !161}
!870 = metadata !{metadata !871}
!871 = metadata !{i32 786468}                     ; [ DW_TAG_base_type ] [line 0, size 0, align 0, offset 0]
!872 = metadata !{i32 786478, i32 0, metadata !361, metadata !"replace", metadata !"replace", metadata !"_ZNSs7replaceEN9__gnu_cxx17__normal_iteratorIPcSsEES2_S1_S1_", metadata !122, i32 1603, metadata !873, i1 false, i1 false, i32 0, i32 0, null, i32 256, i1 true, null, null, i32 0, metadata !875, i32 1603} ; [ DW_TAG_subprogram ] [line 1603] [replace]
!873 = metadata !{i32 786453, i32 0, metadata !"", i32 0, i32 0, i64 0, i64 0, i64 0, i32 0, null, metadata !874, i32 0, i32 0} ; [ DW_TAG_subroutine_type ] [line 0, size 0, align 0, offset 0] [from ]
!874 = metadata !{metadata !622, metadata !474, metadata !487, metadata !487, metadata !216, metadata !216}
!875 = metadata !{metadata !876}
!876 = metadata !{i32 786468}                     ; [ DW_TAG_base_type ] [line 0, size 0, align 0, offset 0]
!877 = metadata !{i32 786478, i32 0, metadata !361, metadata !"replace", metadata !"replace", metadata !"_ZNSs7replaceEN9__gnu_cxx17__normal_iteratorIPcSsEES2_PKcS4_", metadata !122, i32 1613, metadata !878, i1 false, i1 false, i32 0, i32 0, null, i32 256, i1 true, null, null, i32 0, metadata !880, i32 1613} ; [ DW_TAG_subprogram ] [line 1613] [replace]
!878 = metadata !{i32 786453, i32 0, metadata !"", i32 0, i32 0, i64 0, i64 0, i64 0, i32 0, null, metadata !879, i32 0, i32 0} ; [ DW_TAG_subroutine_type ] [line 0, size 0, align 0, offset 0] [from ]
!879 = metadata !{metadata !622, metadata !474, metadata !487, metadata !487, metadata !159, metadata !159}
!880 = metadata !{metadata !881}
!881 = metadata !{i32 786468}                     ; [ DW_TAG_base_type ] [line 0, size 0, align 0, offset 0]
!882 = metadata !{i32 786478, i32 0, metadata !361, metadata !"replace", metadata !"replace", metadata !"_ZNSs7replaceEN9__gnu_cxx17__normal_iteratorIPcSsEES2_S2_S2_", metadata !122, i32 1624, metadata !883, i1 false, i1 false, i32 0, i32 0, null, i32 256, i1 true, null, null, i32 0, metadata !885, i32 1624} ; [ DW_TAG_subprogram ] [line 1624] [replace]
!883 = metadata !{i32 786453, i32 0, metadata !"", i32 0, i32 0, i64 0, i64 0, i64 0, i32 0, null, metadata !884, i32 0, i32 0} ; [ DW_TAG_subroutine_type ] [line 0, size 0, align 0, offset 0] [from ]
!884 = metadata !{metadata !622, metadata !474, metadata !487, metadata !487, metadata !487, metadata !487}
!885 = metadata !{metadata !886}
!886 = metadata !{i32 786468}                     ; [ DW_TAG_base_type ] [line 0, size 0, align 0, offset 0]
!887 = metadata !{i32 786478, i32 0, metadata !361, metadata !"replace", metadata !"replace", metadata !"_ZNSs7replaceEN9__gnu_cxx17__normal_iteratorIPcSsEES2_NS0_IPKcSsEES5_", metadata !122, i32 1634, metadata !888, i1 false, i1 false, i32 0, i32 0, null, i32 256, i1 true, null, null, i32 0, metadata !890, i32 1634} ; [ DW_TAG_subprogram ] [line 1634] [replace]
!888 = metadata !{i32 786453, i32 0, metadata !"", i32 0, i32 0, i64 0, i64 0, i64 0, i32 0, null, metadata !889, i32 0, i32 0} ; [ DW_TAG_subroutine_type ] [line 0, size 0, align 0, offset 0] [from ]
!889 = metadata !{metadata !622, metadata !474, metadata !487, metadata !487, metadata !544, metadata !544}
!890 = metadata !{metadata !891}
!891 = metadata !{i32 786468}                     ; [ DW_TAG_base_type ] [line 0, size 0, align 0, offset 0]
!892 = metadata !{i32 786478, i32 0, metadata !361, metadata !"_M_replace_aux", metadata !"_M_replace_aux", metadata !"_ZNSs14_M_replace_auxEmmmc", metadata !122, i32 1676, metadata !848, i1 false, i1 false, i32 0, i32 0, null, i32 257, i1 true, null, null, i32 0, metadata !893, i32 1676} ; [ DW_TAG_subprogram ] [line 1676] [_M_replace_aux]
!893 = metadata !{metadata !894}
!894 = metadata !{i32 786468}                     ; [ DW_TAG_base_type ] [line 0, size 0, align 0, offset 0]
!895 = metadata !{i32 786478, i32 0, metadata !361, metadata !"_M_replace_safe", metadata !"_M_replace_safe", metadata !"_ZNSs15_M_replace_safeEmmPKcm", metadata !122, i32 1680, metadata !838, i1 false, i1 false, i32 0, i32 0, null, i32 257, i1 true, null, null, i32 0, metadata !896, i32 1680} ; [ DW_TAG_subprogram ] [line 1680] [_M_replace_safe]
!896 = metadata !{metadata !897}
!897 = metadata !{i32 786468}                     ; [ DW_TAG_base_type ] [line 0, size 0, align 0, offset 0]
!898 = metadata !{i32 786478, i32 0, metadata !361, metadata !"_S_construct_aux_2", metadata !"_S_construct_aux_2", metadata !"_ZNSs18_S_construct_aux_2EmcRKSaIcE", metadata !122, i32 1704, metadata !899, i1 false, i1 false, i32 0, i32 0, null, i32 257, i1 true, null, null, i32 0, metadata !901, i32 1704} ; [ DW_TAG_subprogram ] [line 1704] [_S_construct_aux_2]
!899 = metadata !{i32 786453, i32 0, metadata !"", i32 0, i32 0, i64 0, i64 0, i64 0, i32 0, null, metadata !900, i32 0, i32 0} ; [ DW_TAG_subroutine_type ] [line 0, size 0, align 0, offset 0] [from ]
!900 = metadata !{metadata !216, metadata !504, metadata !161, metadata !448}
!901 = metadata !{metadata !902}
!902 = metadata !{i32 786468}                     ; [ DW_TAG_base_type ] [line 0, size 0, align 0, offset 0]
!903 = metadata !{i32 786478, i32 0, metadata !361, metadata !"_S_construct", metadata !"_S_construct", metadata !"_ZNSs12_S_constructEmcRKSaIcE", metadata !122, i32 1729, metadata !899, i1 false, i1 false, i32 0, i32 0, null, i32 257, i1 true, null, null, i32 0, metadata !904, i32 1729} ; [ DW_TAG_subprogram ] [line 1729] [_S_construct]
!904 = metadata !{metadata !905}
!905 = metadata !{i32 786468}                     ; [ DW_TAG_base_type ] [line 0, size 0, align 0, offset 0]
!906 = metadata !{i32 786478, i32 0, metadata !361, metadata !"copy", metadata !"copy", metadata !"_ZNKSs4copyEPcmm", metadata !122, i32 1745, metadata !907, i1 false, i1 false, i32 0, i32 0, null, i32 256, i1 true, null, null, i32 0, metadata !909, i32 1745} ; [ DW_TAG_subprogram ] [line 1745] [copy]
!907 = metadata !{i32 786453, i32 0, metadata !"", i32 0, i32 0, i64 0, i64 0, i64 0, i32 0, null, metadata !908, i32 0, i32 0} ; [ DW_TAG_subroutine_type ] [line 0, size 0, align 0, offset 0] [from ]
!908 = metadata !{metadata !504, metadata !467, metadata !216, metadata !504, metadata !504}
!909 = metadata !{metadata !910}
!910 = metadata !{i32 786468}                     ; [ DW_TAG_base_type ] [line 0, size 0, align 0, offset 0]
!911 = metadata !{i32 786478, i32 0, metadata !361, metadata !"swap", metadata !"swap", metadata !"_ZNSs4swapERSs", metadata !122, i32 1755, metadata !912, i1 false, i1 false, i32 0, i32 0, null, i32 256, i1 true, null, null, i32 0, metadata !914, i32 1755} ; [ DW_TAG_subprogram ] [line 1755] [swap]
!912 = metadata !{i32 786453, i32 0, metadata !"", i32 0, i32 0, i64 0, i64 0, i64 0, i32 0, null, metadata !913, i32 0, i32 0} ; [ DW_TAG_subroutine_type ] [line 0, size 0, align 0, offset 0] [from ]
!913 = metadata !{null, metadata !474, metadata !622}
!914 = metadata !{metadata !915}
!915 = metadata !{i32 786468}                     ; [ DW_TAG_base_type ] [line 0, size 0, align 0, offset 0]
!916 = metadata !{i32 786478, i32 0, metadata !361, metadata !"c_str", metadata !"c_str", metadata !"_ZNKSs5c_strEv", metadata !122, i32 1765, metadata !917, i1 false, i1 false, i32 0, i32 0, null, i32 256, i1 true, null, null, i32 0, metadata !919, i32 1765} ; [ DW_TAG_subprogram ] [line 1765] [c_str]
!917 = metadata !{i32 786453, i32 0, metadata !"", i32 0, i32 0, i64 0, i64 0, i64 0, i32 0, null, metadata !918, i32 0, i32 0} ; [ DW_TAG_subroutine_type ] [line 0, size 0, align 0, offset 0] [from ]
!918 = metadata !{metadata !159, metadata !467}
!919 = metadata !{metadata !920}
!920 = metadata !{i32 786468}                     ; [ DW_TAG_base_type ] [line 0, size 0, align 0, offset 0]
!921 = metadata !{i32 786478, i32 0, metadata !361, metadata !"data", metadata !"data", metadata !"_ZNKSs4dataEv", metadata !122, i32 1775, metadata !917, i1 false, i1 false, i32 0, i32 0, null, i32 256, i1 true, null, null, i32 0, metadata !922, i32 1775} ; [ DW_TAG_subprogram ] [line 1775] [data]
!922 = metadata !{metadata !923}
!923 = metadata !{i32 786468}                     ; [ DW_TAG_base_type ] [line 0, size 0, align 0, offset 0]
!924 = metadata !{i32 786478, i32 0, metadata !361, metadata !"get_allocator", metadata !"get_allocator", metadata !"_ZNKSs13get_allocatorEv", metadata !122, i32 1782, metadata !925, i1 false, i1 false, i32 0, i32 0, null, i32 256, i1 true, null, null, i32 0, metadata !928, i32 1782} ; [ DW_TAG_subprogram ] [line 1782] [get_allocator]
!925 = metadata !{i32 786453, i32 0, metadata !"", i32 0, i32 0, i64 0, i64 0, i64 0, i32 0, null, metadata !926, i32 0, i32 0} ; [ DW_TAG_subroutine_type ] [line 0, size 0, align 0, offset 0] [from ]
!926 = metadata !{metadata !927, metadata !467}
!927 = metadata !{i32 786454, metadata !361, metadata !"allocator_type", metadata !362, i32 114, i64 0, i64 0, i64 0, i32 0, metadata !368} ; [ DW_TAG_typedef ] [allocator_type] [line 114, size 0, align 0, offset 0] [from allocator<char>]
!928 = metadata !{metadata !929}
!929 = metadata !{i32 786468}                     ; [ DW_TAG_base_type ] [line 0, size 0, align 0, offset 0]
!930 = metadata !{i32 786478, i32 0, metadata !361, metadata !"find", metadata !"find", metadata !"_ZNKSs4findEPKcmm", metadata !122, i32 1797, metadata !931, i1 false, i1 false, i32 0, i32 0, null, i32 256, i1 true, null, null, i32 0, metadata !933, i32 1797} ; [ DW_TAG_subprogram ] [line 1797] [find]
!931 = metadata !{i32 786453, i32 0, metadata !"", i32 0, i32 0, i64 0, i64 0, i64 0, i32 0, null, metadata !932, i32 0, i32 0} ; [ DW_TAG_subroutine_type ] [line 0, size 0, align 0, offset 0] [from ]
!932 = metadata !{metadata !504, metadata !467, metadata !159, metadata !504, metadata !504}
!933 = metadata !{metadata !934}
!934 = metadata !{i32 786468}                     ; [ DW_TAG_base_type ] [line 0, size 0, align 0, offset 0]
!935 = metadata !{i32 786478, i32 0, metadata !361, metadata !"find", metadata !"find", metadata !"_ZNKSs4findERKSsm", metadata !122, i32 1810, metadata !936, i1 false, i1 false, i32 0, i32 0, null, i32 256, i1 true, null, null, i32 0, metadata !938, i32 1810} ; [ DW_TAG_subprogram ] [line 1810] [find]
!936 = metadata !{i32 786453, i32 0, metadata !"", i32 0, i32 0, i64 0, i64 0, i64 0, i32 0, null, metadata !937, i32 0, i32 0} ; [ DW_TAG_subroutine_type ] [line 0, size 0, align 0, offset 0] [from ]
!937 = metadata !{metadata !504, metadata !467, metadata !588, metadata !504}
!938 = metadata !{metadata !939}
!939 = metadata !{i32 786468}                     ; [ DW_TAG_base_type ] [line 0, size 0, align 0, offset 0]
!940 = metadata !{i32 786478, i32 0, metadata !361, metadata !"find", metadata !"find", metadata !"_ZNKSs4findEPKcm", metadata !122, i32 1824, metadata !941, i1 false, i1 false, i32 0, i32 0, null, i32 256, i1 true, null, null, i32 0, metadata !943, i32 1824} ; [ DW_TAG_subprogram ] [line 1824] [find]
!941 = metadata !{i32 786453, i32 0, metadata !"", i32 0, i32 0, i64 0, i64 0, i64 0, i32 0, null, metadata !942, i32 0, i32 0} ; [ DW_TAG_subroutine_type ] [line 0, size 0, align 0, offset 0] [from ]
!942 = metadata !{metadata !504, metadata !467, metadata !159, metadata !504}
!943 = metadata !{metadata !944}
!944 = metadata !{i32 786468}                     ; [ DW_TAG_base_type ] [line 0, size 0, align 0, offset 0]
!945 = metadata !{i32 786478, i32 0, metadata !361, metadata !"find", metadata !"find", metadata !"_ZNKSs4findEcm", metadata !122, i32 1841, metadata !946, i1 false, i1 false, i32 0, i32 0, null, i32 256, i1 true, null, null, i32 0, metadata !948, i32 1841} ; [ DW_TAG_subprogram ] [line 1841] [find]
!946 = metadata !{i32 786453, i32 0, metadata !"", i32 0, i32 0, i64 0, i64 0, i64 0, i32 0, null, metadata !947, i32 0, i32 0} ; [ DW_TAG_subroutine_type ] [line 0, size 0, align 0, offset 0] [from ]
!947 = metadata !{metadata !504, metadata !467, metadata !161, metadata !504}
!948 = metadata !{metadata !949}
!949 = metadata !{i32 786468}                     ; [ DW_TAG_base_type ] [line 0, size 0, align 0, offset 0]
!950 = metadata !{i32 786478, i32 0, metadata !361, metadata !"rfind", metadata !"rfind", metadata !"_ZNKSs5rfindERKSsm", metadata !122, i32 1854, metadata !936, i1 false, i1 false, i32 0, i32 0, null, i32 256, i1 true, null, null, i32 0, metadata !951, i32 1854} ; [ DW_TAG_subprogram ] [line 1854] [rfind]
!951 = metadata !{metadata !952}
!952 = metadata !{i32 786468}                     ; [ DW_TAG_base_type ] [line 0, size 0, align 0, offset 0]
!953 = metadata !{i32 786478, i32 0, metadata !361, metadata !"rfind", metadata !"rfind", metadata !"_ZNKSs5rfindEPKcmm", metadata !122, i32 1869, metadata !931, i1 false, i1 false, i32 0, i32 0, null, i32 256, i1 true, null, null, i32 0, metadata !954, i32 1869} ; [ DW_TAG_subprogram ] [line 1869] [rfind]
!954 = metadata !{metadata !955}
!955 = metadata !{i32 786468}                     ; [ DW_TAG_base_type ] [line 0, size 0, align 0, offset 0]
!956 = metadata !{i32 786478, i32 0, metadata !361, metadata !"rfind", metadata !"rfind", metadata !"_ZNKSs5rfindEPKcm", metadata !122, i32 1882, metadata !941, i1 false, i1 false, i32 0, i32 0, null, i32 256, i1 true, null, null, i32 0, metadata !957, i32 1882} ; [ DW_TAG_subprogram ] [line 1882] [rfind]
!957 = metadata !{metadata !958}
!958 = metadata !{i32 786468}                     ; [ DW_TAG_base_type ] [line 0, size 0, align 0, offset 0]
!959 = metadata !{i32 786478, i32 0, metadata !361, metadata !"rfind", metadata !"rfind", metadata !"_ZNKSs5rfindEcm", metadata !122, i32 1899, metadata !946, i1 false, i1 false, i32 0, i32 0, null, i32 256, i1 true, null, null, i32 0, metadata !960, i32 1899} ; [ DW_TAG_subprogram ] [line 1899] [rfind]
!960 = metadata !{metadata !961}
!961 = metadata !{i32 786468}                     ; [ DW_TAG_base_type ] [line 0, size 0, align 0, offset 0]
!962 = metadata !{i32 786478, i32 0, metadata !361, metadata !"find_first_of", metadata !"find_first_of", metadata !"_ZNKSs13find_first_ofERKSsm", metadata !122, i32 1912, metadata !936, i1 false, i1 false, i32 0, i32 0, null, i32 256, i1 true, null, null, i32 0, metadata !963, i32 1912} ; [ DW_TAG_subprogram ] [line 1912] [find_first_of]
!963 = metadata !{metadata !964}
!964 = metadata !{i32 786468}                     ; [ DW_TAG_base_type ] [line 0, size 0, align 0, offset 0]
!965 = metadata !{i32 786478, i32 0, metadata !361, metadata !"find_first_of", metadata !"find_first_of", metadata !"_ZNKSs13find_first_ofEPKcmm", metadata !122, i32 1927, metadata !931, i1 false, i1 false, i32 0, i32 0, null, i32 256, i1 true, null, null, i32 0, metadata !966, i32 1927} ; [ DW_TAG_subprogram ] [line 1927] [find_first_of]
!966 = metadata !{metadata !967}
!967 = metadata !{i32 786468}                     ; [ DW_TAG_base_type ] [line 0, size 0, align 0, offset 0]
!968 = metadata !{i32 786478, i32 0, metadata !361, metadata !"find_first_of", metadata !"find_first_of", metadata !"_ZNKSs13find_first_ofEPKcm", metadata !122, i32 1940, metadata !941, i1 false, i1 false, i32 0, i32 0, null, i32 256, i1 true, null, null, i32 0, metadata !969, i32 1940} ; [ DW_TAG_subprogram ] [line 1940] [find_first_of]
!969 = metadata !{metadata !970}
!970 = metadata !{i32 786468}                     ; [ DW_TAG_base_type ] [line 0, size 0, align 0, offset 0]
!971 = metadata !{i32 786478, i32 0, metadata !361, metadata !"find_first_of", metadata !"find_first_of", metadata !"_ZNKSs13find_first_ofEcm", metadata !122, i32 1959, metadata !946, i1 false, i1 false, i32 0, i32 0, null, i32 256, i1 true, null, null, i32 0, metadata !972, i32 1959} ; [ DW_TAG_subprogram ] [line 1959] [find_first_of]
!972 = metadata !{metadata !973}
!973 = metadata !{i32 786468}                     ; [ DW_TAG_base_type ] [line 0, size 0, align 0, offset 0]
!974 = metadata !{i32 786478, i32 0, metadata !361, metadata !"find_last_of", metadata !"find_last_of", metadata !"_ZNKSs12find_last_ofERKSsm", metadata !122, i32 1973, metadata !936, i1 false, i1 false, i32 0, i32 0, null, i32 256, i1 true, null, null, i32 0, metadata !975, i32 1973} ; [ DW_TAG_subprogram ] [line 1973] [find_last_of]
!975 = metadata !{metadata !976}
!976 = metadata !{i32 786468}                     ; [ DW_TAG_base_type ] [line 0, size 0, align 0, offset 0]
!977 = metadata !{i32 786478, i32 0, metadata !361, metadata !"find_last_of", metadata !"find_last_of", metadata !"_ZNKSs12find_last_ofEPKcmm", metadata !122, i32 1988, metadata !931, i1 false, i1 false, i32 0, i32 0, null, i32 256, i1 true, null, null, i32 0, metadata !978, i32 1988} ; [ DW_TAG_subprogram ] [line 1988] [find_last_of]
!978 = metadata !{metadata !979}
!979 = metadata !{i32 786468}                     ; [ DW_TAG_base_type ] [line 0, size 0, align 0, offset 0]
!980 = metadata !{i32 786478, i32 0, metadata !361, metadata !"find_last_of", metadata !"find_last_of", metadata !"_ZNKSs12find_last_ofEPKcm", metadata !122, i32 2001, metadata !941, i1 false, i1 false, i32 0, i32 0, null, i32 256, i1 true, null, null, i32 0, metadata !981, i32 2001} ; [ DW_TAG_subprogram ] [line 2001] [find_last_of]
!981 = metadata !{metadata !982}
!982 = metadata !{i32 786468}                     ; [ DW_TAG_base_type ] [line 0, size 0, align 0, offset 0]
!983 = metadata !{i32 786478, i32 0, metadata !361, metadata !"find_last_of", metadata !"find_last_of", metadata !"_ZNKSs12find_last_ofEcm", metadata !122, i32 2020, metadata !946, i1 false, i1 false, i32 0, i32 0, null, i32 256, i1 true, null, null, i32 0, metadata !984, i32 2020} ; [ DW_TAG_subprogram ] [line 2020] [find_last_of]
!984 = metadata !{metadata !985}
!985 = metadata !{i32 786468}                     ; [ DW_TAG_base_type ] [line 0, size 0, align 0, offset 0]
!986 = metadata !{i32 786478, i32 0, metadata !361, metadata !"find_first_not_of", metadata !"find_first_not_of", metadata !"_ZNKSs17find_first_not_ofERKSsm", metadata !122, i32 2034, metadata !936, i1 false, i1 false, i32 0, i32 0, null, i32 256, i1 true, null, null, i32 0, metadata !987, i32 2034} ; [ DW_TAG_subprogram ] [line 2034] [find_first_not_of]
!987 = metadata !{metadata !988}
!988 = metadata !{i32 786468}                     ; [ DW_TAG_base_type ] [line 0, size 0, align 0, offset 0]
!989 = metadata !{i32 786478, i32 0, metadata !361, metadata !"find_first_not_of", metadata !"find_first_not_of", metadata !"_ZNKSs17find_first_not_ofEPKcmm", metadata !122, i32 2049, metadata !931, i1 false, i1 false, i32 0, i32 0, null, i32 256, i1 true, null, null, i32 0, metadata !990, i32 2049} ; [ DW_TAG_subprogram ] [line 2049] [find_first_not_of]
!990 = metadata !{metadata !991}
!991 = metadata !{i32 786468}                     ; [ DW_TAG_base_type ] [line 0, size 0, align 0, offset 0]
!992 = metadata !{i32 786478, i32 0, metadata !361, metadata !"find_first_not_of", metadata !"find_first_not_of", metadata !"_ZNKSs17find_first_not_ofEPKcm", metadata !122, i32 2063, metadata !941, i1 false, i1 false, i32 0, i32 0, null, i32 256, i1 true, null, null, i32 0, metadata !993, i32 2063} ; [ DW_TAG_subprogram ] [line 2063] [find_first_not_of]
!993 = metadata !{metadata !994}
!994 = metadata !{i32 786468}                     ; [ DW_TAG_base_type ] [line 0, size 0, align 0, offset 0]
!995 = metadata !{i32 786478, i32 0, metadata !361, metadata !"find_first_not_of", metadata !"find_first_not_of", metadata !"_ZNKSs17find_first_not_ofEcm", metadata !122, i32 2080, metadata !946, i1 false, i1 false, i32 0, i32 0, null, i32 256, i1 true, null, null, i32 0, metadata !996, i32 2080} ; [ DW_TAG_subprogram ] [line 2080] [find_first_not_of]
!996 = metadata !{metadata !997}
!997 = metadata !{i32 786468}                     ; [ DW_TAG_base_type ] [line 0, size 0, align 0, offset 0]
!998 = metadata !{i32 786478, i32 0, metadata !361, metadata !"find_last_not_of", metadata !"find_last_not_of", metadata !"_ZNKSs16find_last_not_ofERKSsm", metadata !122, i32 2093, metadata !936, i1 false, i1 false, i32 0, i32 0, null, i32 256, i1 true, null, null, i32 0, metadata !999, i32 2093} ; [ DW_TAG_subprogram ] [line 2093] [find_last_not_of]
!999 = metadata !{metadata !1000}
!1000 = metadata !{i32 786468}                    ; [ DW_TAG_base_type ] [line 0, size 0, align 0, offset 0]
!1001 = metadata !{i32 786478, i32 0, metadata !361, metadata !"find_last_not_of", metadata !"find_last_not_of", metadata !"_ZNKSs16find_last_not_ofEPKcmm", metadata !122, i32 2109, metadata !931, i1 false, i1 false, i32 0, i32 0, null, i32 256, i1 true, null, null, i32 0, metadata !1002, i32 2109} ; [ DW_TAG_subprogram ] [line 2109] [find_last_not_of]
!1002 = metadata !{metadata !1003}
!1003 = metadata !{i32 786468}                    ; [ DW_TAG_base_type ] [line 0, size 0, align 0, offset 0]
!1004 = metadata !{i32 786478, i32 0, metadata !361, metadata !"find_last_not_of", metadata !"find_last_not_of", metadata !"_ZNKSs16find_last_not_ofEPKcm", metadata !122, i32 2122, metadata !941, i1 false, i1 false, i32 0, i32 0, null, i32 256, i1 true, null, null, i32 0, metadata !1005, i32 2122} ; [ DW_TAG_subprogram ] [line 2122] [find_last_not_of]
!1005 = metadata !{metadata !1006}
!1006 = metadata !{i32 786468}                    ; [ DW_TAG_base_type ] [line 0, size 0, align 0, offset 0]
!1007 = metadata !{i32 786478, i32 0, metadata !361, metadata !"find_last_not_of", metadata !"find_last_not_of", metadata !"_ZNKSs16find_last_not_ofEcm", metadata !122, i32 2139, metadata !946, i1 false, i1 false, i32 0, i32 0, null, i32 256, i1 true, null, null, i32 0, metadata !1008, i32 2139} ; [ DW_TAG_subprogram ] [line 2139] [find_last_not_of]
!1008 = metadata !{metadata !1009}
!1009 = metadata !{i32 786468}                    ; [ DW_TAG_base_type ] [line 0, size 0, align 0, offset 0]
!1010 = metadata !{i32 786478, i32 0, metadata !361, metadata !"substr", metadata !"substr", metadata !"_ZNKSs6substrEmm", metadata !122, i32 2154, metadata !1011, i1 false, i1 false, i32 0, i32 0, null, i32 256, i1 true, null, null, i32 0, metadata !1013, i32 2154} ; [ DW_TAG_subprogram ] [line 2154] [substr]
!1011 = metadata !{i32 786453, i32 0, metadata !"", i32 0, i32 0, i64 0, i64 0, i64 0, i32 0, null, metadata !1012, i32 0, i32 0} ; [ DW_TAG_subroutine_type ] [line 0, size 0, align 0, offset 0] [from ]
!1012 = metadata !{metadata !361, metadata !467, metadata !504, metadata !504}
!1013 = metadata !{metadata !1014}
!1014 = metadata !{i32 786468}                    ; [ DW_TAG_base_type ] [line 0, size 0, align 0, offset 0]
!1015 = metadata !{i32 786478, i32 0, metadata !361, metadata !"compare", metadata !"compare", metadata !"_ZNKSs7compareERKSs", metadata !122, i32 2172, metadata !1016, i1 false, i1 false, i32 0, i32 0, null, i32 256, i1 true, null, null, i32 0, metadata !1018, i32 2172} ; [ DW_TAG_subprogram ] [line 2172] [compare]
!1016 = metadata !{i32 786453, i32 0, metadata !"", i32 0, i32 0, i64 0, i64 0, i64 0, i32 0, null, metadata !1017, i32 0, i32 0} ; [ DW_TAG_subroutine_type ] [line 0, size 0, align 0, offset 0] [from ]
!1017 = metadata !{metadata !56, metadata !467, metadata !588}
!1018 = metadata !{metadata !1019}
!1019 = metadata !{i32 786468}                    ; [ DW_TAG_base_type ] [line 0, size 0, align 0, offset 0]
!1020 = metadata !{i32 786478, i32 0, metadata !361, metadata !"compare", metadata !"compare", metadata !"_ZNKSs7compareEmmRKSs", metadata !122, i32 2202, metadata !1021, i1 false, i1 false, i32 0, i32 0, null, i32 256, i1 true, null, null, i32 0, metadata !1023, i32 2202} ; [ DW_TAG_subprogram ] [line 2202] [compare]
!1021 = metadata !{i32 786453, i32 0, metadata !"", i32 0, i32 0, i64 0, i64 0, i64 0, i32 0, null, metadata !1022, i32 0, i32 0} ; [ DW_TAG_subroutine_type ] [line 0, size 0, align 0, offset 0] [from ]
!1022 = metadata !{metadata !56, metadata !467, metadata !504, metadata !504, metadata !588}
!1023 = metadata !{metadata !1024}
!1024 = metadata !{i32 786468}                    ; [ DW_TAG_base_type ] [line 0, size 0, align 0, offset 0]
!1025 = metadata !{i32 786478, i32 0, metadata !361, metadata !"compare", metadata !"compare", metadata !"_ZNKSs7compareEmmRKSsmm", metadata !122, i32 2226, metadata !1026, i1 false, i1 false, i32 0, i32 0, null, i32 256, i1 true, null, null, i32 0, metadata !1028, i32 2226} ; [ DW_TAG_subprogram ] [line 2226] [compare]
!1026 = metadata !{i32 786453, i32 0, metadata !"", i32 0, i32 0, i64 0, i64 0, i64 0, i32 0, null, metadata !1027, i32 0, i32 0} ; [ DW_TAG_subroutine_type ] [line 0, size 0, align 0, offset 0] [from ]
!1027 = metadata !{metadata !56, metadata !467, metadata !504, metadata !504, metadata !588, metadata !504, metadata !504}
!1028 = metadata !{metadata !1029}
!1029 = metadata !{i32 786468}                    ; [ DW_TAG_base_type ] [line 0, size 0, align 0, offset 0]
!1030 = metadata !{i32 786478, i32 0, metadata !361, metadata !"compare", metadata !"compare", metadata !"_ZNKSs7compareEPKc", metadata !122, i32 2244, metadata !1031, i1 false, i1 false, i32 0, i32 0, null, i32 256, i1 true, null, null, i32 0, metadata !1033, i32 2244} ; [ DW_TAG_subprogram ] [line 2244] [compare]
!1031 = metadata !{i32 786453, i32 0, metadata !"", i32 0, i32 0, i64 0, i64 0, i64 0, i32 0, null, metadata !1032, i32 0, i32 0} ; [ DW_TAG_subroutine_type ] [line 0, size 0, align 0, offset 0] [from ]
!1032 = metadata !{metadata !56, metadata !467, metadata !159}
!1033 = metadata !{metadata !1034}
!1034 = metadata !{i32 786468}                    ; [ DW_TAG_base_type ] [line 0, size 0, align 0, offset 0]
!1035 = metadata !{i32 786478, i32 0, metadata !361, metadata !"compare", metadata !"compare", metadata !"_ZNKSs7compareEmmPKc", metadata !122, i32 2267, metadata !1036, i1 false, i1 false, i32 0, i32 0, null, i32 256, i1 true, null, null, i32 0, metadata !1038, i32 2267} ; [ DW_TAG_subprogram ] [line 2267] [compare]
!1036 = metadata !{i32 786453, i32 0, metadata !"", i32 0, i32 0, i64 0, i64 0, i64 0, i32 0, null, metadata !1037, i32 0, i32 0} ; [ DW_TAG_subroutine_type ] [line 0, size 0, align 0, offset 0] [from ]
!1037 = metadata !{metadata !56, metadata !467, metadata !504, metadata !504, metadata !159}
!1038 = metadata !{metadata !1039}
!1039 = metadata !{i32 786468}                    ; [ DW_TAG_base_type ] [line 0, size 0, align 0, offset 0]
!1040 = metadata !{i32 786478, i32 0, metadata !361, metadata !"compare", metadata !"compare", metadata !"_ZNKSs7compareEmmPKcm", metadata !122, i32 2292, metadata !1041, i1 false, i1 false, i32 0, i32 0, null, i32 256, i1 true, null, null, i32 0, metadata !1043, i32 2292} ; [ DW_TAG_subprogram ] [line 2292] [compare]
!1041 = metadata !{i32 786453, i32 0, metadata !"", i32 0, i32 0, i64 0, i64 0, i64 0, i32 0, null, metadata !1042, i32 0, i32 0} ; [ DW_TAG_subroutine_type ] [line 0, size 0, align 0, offset 0] [from ]
!1042 = metadata !{metadata !56, metadata !467, metadata !504, metadata !504, metadata !159, metadata !504}
!1043 = metadata !{metadata !1044}
!1044 = metadata !{i32 786468}                    ; [ DW_TAG_base_type ] [line 0, size 0, align 0, offset 0]
!1045 = metadata !{metadata !1046, metadata !1047, metadata !1128}
!1046 = metadata !{i32 786479, null, metadata !"_CharT", metadata !161, null, i32 0, i32 0} ; [ DW_TAG_template_type_parameter ]
!1047 = metadata !{i32 786479, null, metadata !"_Traits", metadata !1048, null, i32 0, i32 0} ; [ DW_TAG_template_type_parameter ]
!1048 = metadata !{i32 786451, metadata !1049, metadata !"char_traits<char>", metadata !1050, i32 234, i64 8, i64 8, i32 0, i32 0, null, metadata !1051, i32 0, null, metadata !1127} ; [ DW_TAG_structure_type ] [char_traits<char>] [line 234, size 8, align 8, offset 0] [from ]
!1049 = metadata !{i32 786489, null, metadata !"std", metadata !1050, i32 210} ; [ DW_TAG_namespace ] [/home/asit/AC-workdir/AxC-SVN-SHARED-REPO/axc/workloads/bodytrack-PARSEC/src/TrackingBenchmark//usr/lib/gcc/x86_64-redhat-linux/4.6.3/../../../../include/c++/4.6.3/bits/char_traits.h]
!1050 = metadata !{i32 786473, metadata !"/usr/lib/gcc/x86_64-redhat-linux/4.6.3/../../../../include/c++/4.6.3/bits/char_traits.h", metadata !"/home/asit/AC-workdir/AxC-SVN-SHARED-REPO/axc/workloads/bodytrack-PARSEC/src/TrackingBenchmark", null} ; [ DW_TAG_file_type ]
!1051 = metadata !{metadata !1052, metadata !1061, metadata !1066, metadata !1069, metadata !1075, metadata !1080, metadata !1085, metadata !1091, metadata !1094, metadata !1099, metadata !1107, metadata !1112, metadata !1117, metadata !1122}
!1052 = metadata !{i32 786478, i32 0, metadata !1048, metadata !"assign", metadata !"assign", metadata !"_ZNSt11char_traitsIcE6assignERcRKc", metadata !1050, i32 243, metadata !1053, i1 false, i1 false, i32 0, i32 0, null, i32 256, i1 true, null, null, i32 0, metadata !1059, i32 243} ; [ DW_TAG_subprogram ] [line 243] [assign]
!1053 = metadata !{i32 786453, i32 0, metadata !"", i32 0, i32 0, i64 0, i64 0, i64 0, i32 0, null, metadata !1054, i32 0, i32 0} ; [ DW_TAG_subroutine_type ] [line 0, size 0, align 0, offset 0] [from ]
!1054 = metadata !{null, metadata !1055, metadata !1057}
!1055 = metadata !{i32 786448, null, null, null, i32 0, i64 0, i64 0, i64 0, i32 0, metadata !1056} ; [ DW_TAG_reference_type ] [line 0, size 0, align 0, offset 0] [from char_type]
!1056 = metadata !{i32 786454, metadata !1048, metadata !"char_type", metadata !1050, i32 236, i64 0, i64 0, i64 0, i32 0, metadata !161} ; [ DW_TAG_typedef ] [char_type] [line 236, size 0, align 0, offset 0] [from char]
!1057 = metadata !{i32 786448, null, null, null, i32 0, i64 0, i64 0, i64 0, i32 0, metadata !1058} ; [ DW_TAG_reference_type ] [line 0, size 0, align 0, offset 0] [from ]
!1058 = metadata !{i32 786470, null, metadata !"", null, i32 0, i64 0, i64 0, i64 0, i32 0, metadata !1056} ; [ DW_TAG_const_type ] [line 0, size 0, align 0, offset 0] [from char_type]
!1059 = metadata !{metadata !1060}
!1060 = metadata !{i32 786468}                    ; [ DW_TAG_base_type ] [line 0, size 0, align 0, offset 0]
!1061 = metadata !{i32 786478, i32 0, metadata !1048, metadata !"eq", metadata !"eq", metadata !"_ZNSt11char_traitsIcE2eqERKcS2_", metadata !1050, i32 247, metadata !1062, i1 false, i1 false, i32 0, i32 0, null, i32 256, i1 true, null, null, i32 0, metadata !1064, i32 247} ; [ DW_TAG_subprogram ] [line 247] [eq]
!1062 = metadata !{i32 786453, i32 0, metadata !"", i32 0, i32 0, i64 0, i64 0, i64 0, i32 0, null, metadata !1063, i32 0, i32 0} ; [ DW_TAG_subroutine_type ] [line 0, size 0, align 0, offset 0] [from ]
!1063 = metadata !{metadata !257, metadata !1057, metadata !1057}
!1064 = metadata !{metadata !1065}
!1065 = metadata !{i32 786468}                    ; [ DW_TAG_base_type ] [line 0, size 0, align 0, offset 0]
!1066 = metadata !{i32 786478, i32 0, metadata !1048, metadata !"lt", metadata !"lt", metadata !"_ZNSt11char_traitsIcE2ltERKcS2_", metadata !1050, i32 251, metadata !1062, i1 false, i1 false, i32 0, i32 0, null, i32 256, i1 true, null, null, i32 0, metadata !1067, i32 251} ; [ DW_TAG_subprogram ] [line 251] [lt]
!1067 = metadata !{metadata !1068}
!1068 = metadata !{i32 786468}                    ; [ DW_TAG_base_type ] [line 0, size 0, align 0, offset 0]
!1069 = metadata !{i32 786478, i32 0, metadata !1048, metadata !"compare", metadata !"compare", metadata !"_ZNSt11char_traitsIcE7compareEPKcS2_m", metadata !1050, i32 255, metadata !1070, i1 false, i1 false, i32 0, i32 0, null, i32 256, i1 true, null, null, i32 0, metadata !1073, i32 255} ; [ DW_TAG_subprogram ] [line 255] [compare]
!1070 = metadata !{i32 786453, i32 0, metadata !"", i32 0, i32 0, i64 0, i64 0, i64 0, i32 0, null, metadata !1071, i32 0, i32 0} ; [ DW_TAG_subroutine_type ] [line 0, size 0, align 0, offset 0] [from ]
!1071 = metadata !{metadata !56, metadata !1072, metadata !1072, metadata !121}
!1072 = metadata !{i32 786447, null, metadata !"", null, i32 0, i64 64, i64 64, i64 0, i32 0, metadata !1058} ; [ DW_TAG_pointer_type ] [line 0, size 64, align 64, offset 0] [from ]
!1073 = metadata !{metadata !1074}
!1074 = metadata !{i32 786468}                    ; [ DW_TAG_base_type ] [line 0, size 0, align 0, offset 0]
!1075 = metadata !{i32 786478, i32 0, metadata !1048, metadata !"length", metadata !"length", metadata !"_ZNSt11char_traitsIcE6lengthEPKc", metadata !1050, i32 259, metadata !1076, i1 false, i1 false, i32 0, i32 0, null, i32 256, i1 true, null, null, i32 0, metadata !1078, i32 259} ; [ DW_TAG_subprogram ] [line 259] [length]
!1076 = metadata !{i32 786453, i32 0, metadata !"", i32 0, i32 0, i64 0, i64 0, i64 0, i32 0, null, metadata !1077, i32 0, i32 0} ; [ DW_TAG_subroutine_type ] [line 0, size 0, align 0, offset 0] [from ]
!1077 = metadata !{metadata !121, metadata !1072}
!1078 = metadata !{metadata !1079}
!1079 = metadata !{i32 786468}                    ; [ DW_TAG_base_type ] [line 0, size 0, align 0, offset 0]
!1080 = metadata !{i32 786478, i32 0, metadata !1048, metadata !"find", metadata !"find", metadata !"_ZNSt11char_traitsIcE4findEPKcmRS1_", metadata !1050, i32 263, metadata !1081, i1 false, i1 false, i32 0, i32 0, null, i32 256, i1 true, null, null, i32 0, metadata !1083, i32 263} ; [ DW_TAG_subprogram ] [line 263] [find]
!1081 = metadata !{i32 786453, i32 0, metadata !"", i32 0, i32 0, i64 0, i64 0, i64 0, i32 0, null, metadata !1082, i32 0, i32 0} ; [ DW_TAG_subroutine_type ] [line 0, size 0, align 0, offset 0] [from ]
!1082 = metadata !{metadata !1072, metadata !1072, metadata !121, metadata !1057}
!1083 = metadata !{metadata !1084}
!1084 = metadata !{i32 786468}                    ; [ DW_TAG_base_type ] [line 0, size 0, align 0, offset 0]
!1085 = metadata !{i32 786478, i32 0, metadata !1048, metadata !"move", metadata !"move", metadata !"_ZNSt11char_traitsIcE4moveEPcPKcm", metadata !1050, i32 267, metadata !1086, i1 false, i1 false, i32 0, i32 0, null, i32 256, i1 true, null, null, i32 0, metadata !1089, i32 267} ; [ DW_TAG_subprogram ] [line 267] [move]
!1086 = metadata !{i32 786453, i32 0, metadata !"", i32 0, i32 0, i64 0, i64 0, i64 0, i32 0, null, metadata !1087, i32 0, i32 0} ; [ DW_TAG_subroutine_type ] [line 0, size 0, align 0, offset 0] [from ]
!1087 = metadata !{metadata !1088, metadata !1088, metadata !1072, metadata !121}
!1088 = metadata !{i32 786447, null, metadata !"", null, i32 0, i64 64, i64 64, i64 0, i32 0, metadata !1056} ; [ DW_TAG_pointer_type ] [line 0, size 64, align 64, offset 0] [from char_type]
!1089 = metadata !{metadata !1090}
!1090 = metadata !{i32 786468}                    ; [ DW_TAG_base_type ] [line 0, size 0, align 0, offset 0]
!1091 = metadata !{i32 786478, i32 0, metadata !1048, metadata !"copy", metadata !"copy", metadata !"_ZNSt11char_traitsIcE4copyEPcPKcm", metadata !1050, i32 271, metadata !1086, i1 false, i1 false, i32 0, i32 0, null, i32 256, i1 true, null, null, i32 0, metadata !1092, i32 271} ; [ DW_TAG_subprogram ] [line 271] [copy]
!1092 = metadata !{metadata !1093}
!1093 = metadata !{i32 786468}                    ; [ DW_TAG_base_type ] [line 0, size 0, align 0, offset 0]
!1094 = metadata !{i32 786478, i32 0, metadata !1048, metadata !"assign", metadata !"assign", metadata !"_ZNSt11char_traitsIcE6assignEPcmc", metadata !1050, i32 275, metadata !1095, i1 false, i1 false, i32 0, i32 0, null, i32 256, i1 true, null, null, i32 0, metadata !1097, i32 275} ; [ DW_TAG_subprogram ] [line 275] [assign]
!1095 = metadata !{i32 786453, i32 0, metadata !"", i32 0, i32 0, i64 0, i64 0, i64 0, i32 0, null, metadata !1096, i32 0, i32 0} ; [ DW_TAG_subroutine_type ] [line 0, size 0, align 0, offset 0] [from ]
!1096 = metadata !{metadata !1088, metadata !1088, metadata !121, metadata !1056}
!1097 = metadata !{metadata !1098}
!1098 = metadata !{i32 786468}                    ; [ DW_TAG_base_type ] [line 0, size 0, align 0, offset 0]
!1099 = metadata !{i32 786478, i32 0, metadata !1048, metadata !"to_char_type", metadata !"to_char_type", metadata !"_ZNSt11char_traitsIcE12to_char_typeERKi", metadata !1050, i32 279, metadata !1100, i1 false, i1 false, i32 0, i32 0, null, i32 256, i1 true, null, null, i32 0, metadata !1105, i32 279} ; [ DW_TAG_subprogram ] [line 279] [to_char_type]
!1100 = metadata !{i32 786453, i32 0, metadata !"", i32 0, i32 0, i64 0, i64 0, i64 0, i32 0, null, metadata !1101, i32 0, i32 0} ; [ DW_TAG_subroutine_type ] [line 0, size 0, align 0, offset 0] [from ]
!1101 = metadata !{metadata !1056, metadata !1102}
!1102 = metadata !{i32 786448, null, null, null, i32 0, i64 0, i64 0, i64 0, i32 0, metadata !1103} ; [ DW_TAG_reference_type ] [line 0, size 0, align 0, offset 0] [from ]
!1103 = metadata !{i32 786470, null, metadata !"", null, i32 0, i64 0, i64 0, i64 0, i32 0, metadata !1104} ; [ DW_TAG_const_type ] [line 0, size 0, align 0, offset 0] [from int_type]
!1104 = metadata !{i32 786454, metadata !1048, metadata !"int_type", metadata !1050, i32 237, i64 0, i64 0, i64 0, i32 0, metadata !56} ; [ DW_TAG_typedef ] [int_type] [line 237, size 0, align 0, offset 0] [from int]
!1105 = metadata !{metadata !1106}
!1106 = metadata !{i32 786468}                    ; [ DW_TAG_base_type ] [line 0, size 0, align 0, offset 0]
!1107 = metadata !{i32 786478, i32 0, metadata !1048, metadata !"to_int_type", metadata !"to_int_type", metadata !"_ZNSt11char_traitsIcE11to_int_typeERKc", metadata !1050, i32 285, metadata !1108, i1 false, i1 false, i32 0, i32 0, null, i32 256, i1 true, null, null, i32 0, metadata !1110, i32 285} ; [ DW_TAG_subprogram ] [line 285] [to_int_type]
!1108 = metadata !{i32 786453, i32 0, metadata !"", i32 0, i32 0, i64 0, i64 0, i64 0, i32 0, null, metadata !1109, i32 0, i32 0} ; [ DW_TAG_subroutine_type ] [line 0, size 0, align 0, offset 0] [from ]
!1109 = metadata !{metadata !1104, metadata !1057}
!1110 = metadata !{metadata !1111}
!1111 = metadata !{i32 786468}                    ; [ DW_TAG_base_type ] [line 0, size 0, align 0, offset 0]
!1112 = metadata !{i32 786478, i32 0, metadata !1048, metadata !"eq_int_type", metadata !"eq_int_type", metadata !"_ZNSt11char_traitsIcE11eq_int_typeERKiS2_", metadata !1050, i32 289, metadata !1113, i1 false, i1 false, i32 0, i32 0, null, i32 256, i1 true, null, null, i32 0, metadata !1115, i32 289} ; [ DW_TAG_subprogram ] [line 289] [eq_int_type]
!1113 = metadata !{i32 786453, i32 0, metadata !"", i32 0, i32 0, i64 0, i64 0, i64 0, i32 0, null, metadata !1114, i32 0, i32 0} ; [ DW_TAG_subroutine_type ] [line 0, size 0, align 0, offset 0] [from ]
!1114 = metadata !{metadata !257, metadata !1102, metadata !1102}
!1115 = metadata !{metadata !1116}
!1116 = metadata !{i32 786468}                    ; [ DW_TAG_base_type ] [line 0, size 0, align 0, offset 0]
!1117 = metadata !{i32 786478, i32 0, metadata !1048, metadata !"eof", metadata !"eof", metadata !"_ZNSt11char_traitsIcE3eofEv", metadata !1050, i32 293, metadata !1118, i1 false, i1 false, i32 0, i32 0, null, i32 256, i1 true, null, null, i32 0, metadata !1120, i32 293} ; [ DW_TAG_subprogram ] [line 293] [eof]
!1118 = metadata !{i32 786453, i32 0, metadata !"", i32 0, i32 0, i64 0, i64 0, i64 0, i32 0, null, metadata !1119, i32 0, i32 0} ; [ DW_TAG_subroutine_type ] [line 0, size 0, align 0, offset 0] [from ]
!1119 = metadata !{metadata !1104}
!1120 = metadata !{metadata !1121}
!1121 = metadata !{i32 786468}                    ; [ DW_TAG_base_type ] [line 0, size 0, align 0, offset 0]
!1122 = metadata !{i32 786478, i32 0, metadata !1048, metadata !"not_eof", metadata !"not_eof", metadata !"_ZNSt11char_traitsIcE7not_eofERKi", metadata !1050, i32 297, metadata !1123, i1 false, i1 false, i32 0, i32 0, null, i32 256, i1 true, null, null, i32 0, metadata !1125, i32 297} ; [ DW_TAG_subprogram ] [line 297] [not_eof]
!1123 = metadata !{i32 786453, i32 0, metadata !"", i32 0, i32 0, i64 0, i64 0, i64 0, i32 0, null, metadata !1124, i32 0, i32 0} ; [ DW_TAG_subroutine_type ] [line 0, size 0, align 0, offset 0] [from ]
!1124 = metadata !{metadata !1104, metadata !1102}
!1125 = metadata !{metadata !1126}
!1126 = metadata !{i32 786468}                    ; [ DW_TAG_base_type ] [line 0, size 0, align 0, offset 0]
!1127 = metadata !{metadata !1046}
!1128 = metadata !{i32 786479, null, metadata !"_Alloc", metadata !368, null, i32 0, i32 0} ; [ DW_TAG_template_type_parameter ]
!1129 = metadata !{i32 786447, i32 0, metadata !"", i32 0, i32 0, i64 64, i64 64, i64 0, i32 1088, metadata !329} ; [ DW_TAG_pointer_type ] [line 0, size 64, align 64, offset 0] [from ]
!1130 = metadata !{metadata !1131}
!1131 = metadata !{i32 786468}                    ; [ DW_TAG_base_type ] [line 0, size 0, align 0, offset 0]
!1132 = metadata !{i32 786478, i32 0, metadata !94, metadata !"operator==", metadata !"operator==", metadata !"_ZNKSt6localeeqERKS_", metadata !96, i32 226, metadata !1133, i1 false, i1 false, i32 0, i32 0, null, i32 256, i1 true, null, null, i32 0, metadata !1135, i32 226} ; [ DW_TAG_subprogram ] [line 226] [operator==]
!1133 = metadata !{i32 786453, i32 0, metadata !"", i32 0, i32 0, i64 0, i64 0, i64 0, i32 0, null, metadata !1134, i32 0, i32 0} ; [ DW_TAG_subroutine_type ] [line 0, size 0, align 0, offset 0] [from ]
!1134 = metadata !{metadata !257, metadata !1129, metadata !328}
!1135 = metadata !{metadata !1136}
!1136 = metadata !{i32 786468}                    ; [ DW_TAG_base_type ] [line 0, size 0, align 0, offset 0]
!1137 = metadata !{i32 786478, i32 0, metadata !94, metadata !"operator!=", metadata !"operator!=", metadata !"_ZNKSt6localeneERKS_", metadata !96, i32 235, metadata !1133, i1 false, i1 false, i32 0, i32 0, null, i32 256, i1 true, null, null, i32 0, metadata !1138, i32 235} ; [ DW_TAG_subprogram ] [line 235] [operator!=]
!1138 = metadata !{metadata !1139}
!1139 = metadata !{i32 786468}                    ; [ DW_TAG_base_type ] [line 0, size 0, align 0, offset 0]
!1140 = metadata !{i32 786478, i32 0, metadata !94, metadata !"global", metadata !"global", metadata !"_ZNSt6locale6globalERKS_", metadata !96, i32 270, metadata !1141, i1 false, i1 false, i32 0, i32 0, null, i32 256, i1 true, null, null, i32 0, metadata !1143, i32 270} ; [ DW_TAG_subprogram ] [line 270] [global]
!1141 = metadata !{i32 786453, i32 0, metadata !"", i32 0, i32 0, i64 0, i64 0, i64 0, i32 0, null, metadata !1142, i32 0, i32 0} ; [ DW_TAG_subroutine_type ] [line 0, size 0, align 0, offset 0] [from ]
!1142 = metadata !{metadata !94, metadata !328}
!1143 = metadata !{metadata !1144}
!1144 = metadata !{i32 786468}                    ; [ DW_TAG_base_type ] [line 0, size 0, align 0, offset 0]
!1145 = metadata !{i32 786478, i32 0, metadata !94, metadata !"classic", metadata !"classic", metadata !"_ZNSt6locale7classicEv", metadata !96, i32 276, metadata !1146, i1 false, i1 false, i32 0, i32 0, null, i32 256, i1 true, null, null, i32 0, metadata !1148, i32 276} ; [ DW_TAG_subprogram ] [line 276] [classic]
!1146 = metadata !{i32 786453, i32 0, metadata !"", i32 0, i32 0, i64 0, i64 0, i64 0, i32 0, null, metadata !1147, i32 0, i32 0} ; [ DW_TAG_subroutine_type ] [line 0, size 0, align 0, offset 0] [from ]
!1147 = metadata !{metadata !328}
!1148 = metadata !{metadata !1149}
!1149 = metadata !{i32 786468}                    ; [ DW_TAG_base_type ] [line 0, size 0, align 0, offset 0]
!1150 = metadata !{i32 786478, i32 0, metadata !94, metadata !"locale", metadata !"locale", metadata !"", metadata !96, i32 311, metadata !1151, i1 false, i1 false, i32 0, i32 0, null, i32 385, i1 true, null, null, i32 0, metadata !1153, i32 311} ; [ DW_TAG_subprogram ] [line 311] [locale]
!1151 = metadata !{i32 786453, i32 0, metadata !"", i32 0, i32 0, i64 0, i64 0, i64 0, i32 0, null, metadata !1152, i32 0, i32 0} ; [ DW_TAG_subroutine_type ] [line 0, size 0, align 0, offset 0] [from ]
!1152 = metadata !{null, metadata !322, metadata !99}
!1153 = metadata !{metadata !1154}
!1154 = metadata !{i32 786468}                    ; [ DW_TAG_base_type ] [line 0, size 0, align 0, offset 0]
!1155 = metadata !{i32 786478, i32 0, metadata !94, metadata !"_S_initialize", metadata !"_S_initialize", metadata !"_ZNSt6locale13_S_initializeEv", metadata !96, i32 314, metadata !113, i1 false, i1 false, i32 0, i32 0, null, i32 257, i1 true, null, null, i32 0, metadata !1156, i32 314} ; [ DW_TAG_subprogram ] [line 314] [_S_initialize]
!1156 = metadata !{metadata !1157}
!1157 = metadata !{i32 786468}                    ; [ DW_TAG_base_type ] [line 0, size 0, align 0, offset 0]
!1158 = metadata !{i32 786478, i32 0, metadata !94, metadata !"_S_initialize_once", metadata !"_S_initialize_once", metadata !"_ZNSt6locale18_S_initialize_onceEv", metadata !96, i32 317, metadata !113, i1 false, i1 false, i32 0, i32 0, null, i32 257, i1 true, null, null, i32 0, metadata !1159, i32 317} ; [ DW_TAG_subprogram ] [line 317] [_S_initialize_once]
!1159 = metadata !{metadata !1160}
!1160 = metadata !{i32 786468}                    ; [ DW_TAG_base_type ] [line 0, size 0, align 0, offset 0]
!1161 = metadata !{i32 786478, i32 0, metadata !94, metadata !"_S_normalize_category", metadata !"_S_normalize_category", metadata !"_ZNSt6locale21_S_normalize_categoryEi", metadata !96, i32 320, metadata !1162, i1 false, i1 false, i32 0, i32 0, null, i32 257, i1 true, null, null, i32 0, metadata !1164, i32 320} ; [ DW_TAG_subprogram ] [line 320] [_S_normalize_category]
!1162 = metadata !{i32 786453, i32 0, metadata !"", i32 0, i32 0, i64 0, i64 0, i64 0, i32 0, null, metadata !1163, i32 0, i32 0} ; [ DW_TAG_subroutine_type ] [line 0, size 0, align 0, offset 0] [from ]
!1163 = metadata !{metadata !264, metadata !264}
!1164 = metadata !{metadata !1165}
!1165 = metadata !{i32 786468}                    ; [ DW_TAG_base_type ] [line 0, size 0, align 0, offset 0]
!1166 = metadata !{i32 786478, i32 0, metadata !94, metadata !"_M_coalesce", metadata !"_M_coalesce", metadata !"_ZNSt6locale11_M_coalesceERKS_S1_i", metadata !96, i32 323, metadata !343, i1 false, i1 false, i32 0, i32 0, null, i32 257, i1 true, null, null, i32 0, metadata !1167, i32 323} ; [ DW_TAG_subprogram ] [line 323] [_M_coalesce]
!1167 = metadata !{metadata !1168}
!1168 = metadata !{i32 786468}                    ; [ DW_TAG_base_type ] [line 0, size 0, align 0, offset 0]
!1169 = metadata !{i32 786474, metadata !94, null, metadata !96, i32 0, i64 0, i64 0, i64 0, i32 0, metadata !100} ; [ DW_TAG_friend ] [line 0, size 0, align 0, offset 0] [from _Impl]
!1170 = metadata !{i32 786474, metadata !94, null, metadata !96, i32 0, i64 0, i64 0, i64 0, i32 0, metadata !108} ; [ DW_TAG_friend ] [line 0, size 0, align 0, offset 0] [from facet]
!1171 = metadata !{i32 786478, i32 0, metadata !49, metadata !"register_callback", metadata !"register_callback", metadata !"_ZNSt8ios_base17register_callbackEPFvNS_5eventERS_iEi", metadata !5, i32 450, metadata !1172, i1 false, i1 false, i32 0, i32 0, null, i32 256, i1 true, null, null, i32 0, metadata !1180, i32 450} ; [ DW_TAG_subprogram ] [line 450] [register_callback]
!1172 = metadata !{i32 786453, i32 0, metadata !"", i32 0, i32 0, i64 0, i64 0, i64 0, i32 0, null, metadata !1173, i32 0, i32 0} ; [ DW_TAG_subroutine_type ] [line 0, size 0, align 0, offset 0] [from ]
!1173 = metadata !{null, metadata !1174, metadata !1175, metadata !56}
!1174 = metadata !{i32 786447, i32 0, metadata !"", i32 0, i32 0, i64 64, i64 64, i64 0, i32 1088, metadata !49} ; [ DW_TAG_pointer_type ] [line 0, size 64, align 64, offset 0] [from ios_base]
!1175 = metadata !{i32 786454, metadata !49, metadata !"event_callback", metadata !5, i32 437, i64 0, i64 0, i64 0, i32 0, metadata !1176} ; [ DW_TAG_typedef ] [event_callback] [line 437, size 0, align 0, offset 0] [from ]
!1176 = metadata !{i32 786447, null, metadata !"", null, i32 0, i64 64, i64 64, i64 0, i32 0, metadata !1177} ; [ DW_TAG_pointer_type ] [line 0, size 64, align 64, offset 0] [from ]
!1177 = metadata !{i32 786453, i32 0, metadata !"", i32 0, i32 0, i64 0, i64 0, i64 0, i32 0, null, metadata !1178, i32 0, i32 0} ; [ DW_TAG_subroutine_type ] [line 0, size 0, align 0, offset 0] [from ]
!1178 = metadata !{null, metadata !48, metadata !1179, metadata !56}
!1179 = metadata !{i32 786448, null, null, null, i32 0, i64 0, i64 0, i64 0, i32 0, metadata !49} ; [ DW_TAG_reference_type ] [line 0, size 0, align 0, offset 0] [from ios_base]
!1180 = metadata !{metadata !1181}
!1181 = metadata !{i32 786468}                    ; [ DW_TAG_base_type ] [line 0, size 0, align 0, offset 0]
!1182 = metadata !{i32 786478, i32 0, metadata !49, metadata !"_M_call_callbacks", metadata !"_M_call_callbacks", metadata !"_ZNSt8ios_base17_M_call_callbacksENS_5eventE", metadata !5, i32 494, metadata !1183, i1 false, i1 false, i32 0, i32 0, null, i32 258, i1 true, null, null, i32 0, metadata !1185, i32 494} ; [ DW_TAG_subprogram ] [line 494] [_M_call_callbacks]
!1183 = metadata !{i32 786453, i32 0, metadata !"", i32 0, i32 0, i64 0, i64 0, i64 0, i32 0, null, metadata !1184, i32 0, i32 0} ; [ DW_TAG_subroutine_type ] [line 0, size 0, align 0, offset 0] [from ]
!1184 = metadata !{null, metadata !1174, metadata !48}
!1185 = metadata !{metadata !1186}
!1186 = metadata !{i32 786468}                    ; [ DW_TAG_base_type ] [line 0, size 0, align 0, offset 0]
!1187 = metadata !{i32 786478, i32 0, metadata !49, metadata !"_M_dispose_callbacks", metadata !"_M_dispose_callbacks", metadata !"_ZNSt8ios_base20_M_dispose_callbacksEv", metadata !5, i32 497, metadata !1188, i1 false, i1 false, i32 0, i32 0, null, i32 258, i1 true, null, null, i32 0, metadata !1190, i32 497} ; [ DW_TAG_subprogram ] [line 497] [_M_dispose_callbacks]
!1188 = metadata !{i32 786453, i32 0, metadata !"", i32 0, i32 0, i64 0, i64 0, i64 0, i32 0, null, metadata !1189, i32 0, i32 0} ; [ DW_TAG_subroutine_type ] [line 0, size 0, align 0, offset 0] [from ]
!1189 = metadata !{null, metadata !1174}
!1190 = metadata !{metadata !1191}
!1191 = metadata !{i32 786468}                    ; [ DW_TAG_base_type ] [line 0, size 0, align 0, offset 0]
